
/home/carlos/thesis/wrkdir/src/bao-baremetal-guest/build/imx8qm/baremetal.elf:     file format elf64-littleaarch64


Disassembly of section .start:

0000000080200000 <_start>:
#define GENERIC_TIMER_CNTCTL_CNTDIF0_OFFSET  (0x20)

.section .start, "ax"
.global _start
_start:
    mrs x0, MPIDR_EL1
    80200000:	d53800a0 	mrs	x0, mpidr_el1
    and x0, x0, MPIDR_CPU_MASK
    80200004:	92401c00 	and	x0, x0, #0xff
     * Check current exception level. If in:
     *     - el0 or el3, stop
     *     - el1, proceed
     *     - el2, jump to el1
     */
    mrs x1, currentEL
    80200008:	d5384241 	mrs	x1, currentel
    lsr x1, x1, 2
    8020000c:	d342fc21 	lsr	x1, x1, #2
    cmp x1, 0
    80200010:	f100003f 	cmp	x1, #0x0
    b.eq .
    80200014:	54000000 	b.eq	80200014 <_start+0x14>  // b.none
    cmp x1, 3
    80200018:	f1000c3f 	cmp	x1, #0x3
    b.eq .
    8020001c:	54000000 	b.eq	8020001c <_start+0x1c>  // b.none
    cmp x1, 1
    80200020:	f100043f 	cmp	x1, #0x1
    b.eq _enter_el1
    80200024:	54000220 	b.eq	80200068 <_enter_el1>  // b.none
    mrs x1, mpidr_el1
    80200028:	d53800a1 	mrs	x1, mpidr_el1
    msr vmpidr_el2, x1
    8020002c:	d51c00a1 	msr	vmpidr_el2, x1
    mov x1, 0
    80200030:	d2800001 	mov	x1, #0x0                   	// #0
#ifndef MPU
    // VTCR_EL2.MSA bit enables VMSA in Armv8-R which is RES1 in Armv8-A
    orr x1, x1, (1 << 31) 
    80200034:	b2610021 	orr	x1, x1, #0x80000000
#endif
    msr vtcr_el2, x1
    80200038:	d51c2141 	msr	vtcr_el2, x1
#if GIC_VERSION == GICV3
    mov x1, 0x9
    8020003c:	d2800121 	mov	x1, #0x9                   	// #9
    msr icc_sre_el2, x1
    80200040:	d51cc9a1 	msr	icc_sre_el2, x1
    str w2, [x1, GENERIC_TIMER_CNTCTL_CNTCR_OFFSET]
    ldr w2, [x1, GENERIC_TIMER_CNTCTL_CNTDIF0_OFFSET]
    msr cntfrq_el0, x2
#endif

    adr x1, _exception_vector
    80200044:	1000fde1 	adr	x1, 80202000 <_exception_vector>
    msr	VBAR_EL2, x1
    80200048:	d51cc001 	msr	vbar_el2, x1
    mov x1, SPSR_EL1t | SPSR_F | SPSR_I | SPSR_A | SPSR_D
    8020004c:	d2807881 	mov	x1, #0x3c4                 	// #964
    msr spsr_el2, x1
    80200050:	d51c4001 	msr	spsr_el2, x1
    mov x1, HCR_RW_BIT
    80200054:	d2b00001 	mov	x1, #0x80000000            	// #2147483648
    msr hcr_el2, x1
    80200058:	d51c1101 	msr	hcr_el2, x1
    adr x1, _enter_el1
    8020005c:	10000061 	adr	x1, 80200068 <_enter_el1>
    msr elr_el2, x1
    80200060:	d51c4021 	msr	elr_el2, x1
    eret
    80200064:	d69f03e0 	eret

0000000080200068 <_enter_el1>:

_enter_el1:
    adr x1, _exception_vector
    80200068:	1000fcc1 	adr	x1, 80202000 <_exception_vector>
    msr	VBAR_EL1, x1
    8020006c:	d518c001 	msr	vbar_el1, x1

    ldr x1, =MAIR_EL1_DFLT
    80200070:	58000541 	ldr	x1, 80200118 <clear+0x18>
    msr	MAIR_EL1, x1
    80200074:	d518a201 	msr	mair_el1, x1

    // Enable floating point
    mov x1, #(3 << 20)
    80200078:	d2a00601 	mov	x1, #0x300000              	// #3145728
    msr CPACR_EL1, x1
    8020007c:	d5181041 	msr	cpacr_el1, x1
    ldr x1, =(SCTLR_RES1 | SCTLR_C | SCTLR_I | SCTLR_M )
    msr sctlr_el1, x1

#else 

    ldr x1, =0x0000000000802510
    80200080:	58000501 	ldr	x1, 80200120 <clear+0x20>
    msr TCR_EL1, x1
    80200084:	d5182041 	msr	tcr_el1, x1

    adr x1, root_page_table
    80200088:	100b7bc1 	adr	x1, 80217000 <root_page_table>
    msr TTBR0_EL1, x1
    8020008c:	d5182001 	msr	ttbr0_el1, x1

    //TODO: invalidate caches, bp, .. ?

    tlbi	vmalle1
    80200090:	d508871f 	tlbi	vmalle1
	dsb	nsh
    80200094:	d503379f 	dsb	nsh
	isb
    80200098:	d5033fdf 	isb

    ldr x1, =(SCTLR_RES1 | SCTLR_M | SCTLR_C | SCTLR_I)
    8020009c:	58000461 	ldr	x1, 80200128 <clear+0x28>
    msr SCTLR_EL1, x1
    802000a0:	d5181001 	msr	sctlr_el1, x1

    tlbi	vmalle1
    802000a4:	d508871f 	tlbi	vmalle1
	dsb	nsh
    802000a8:	d503379f 	dsb	nsh
	isb
    802000ac:	d5033fdf 	isb
#endif

    cbnz x0, 1f
    802000b0:	b50000e0 	cbnz	x0, 802000cc <_enter_el1+0x64>

    ldr x16, =__bss_start 
    802000b4:	580003f0 	ldr	x16, 80200130 <clear+0x30>
    ldr x17, =__bss_end   
    802000b8:	58000411 	ldr	x17, 80200138 <clear+0x38>
    bl  clear
    802000bc:	94000011 	bl	80200100 <clear>
    .align 3
wait_flag:
    .dword 0x0
    .popsection

    adr x1, wait_flag
    802000c0:	10087c01 	adr	x1, 80211040 <wait_flag>
    mov x2, #1
    802000c4:	d2800022 	mov	x2, #0x1                   	// #1
    str x2, [x1]
    802000c8:	f9000022 	str	x2, [x1]

1:
    adr x1, wait_flag
    802000cc:	10087ba1 	adr	x1, 80211040 <wait_flag>
    ldr x2, [x1]
    802000d0:	f9400022 	ldr	x2, [x1]
    cbz x2, 1b
    802000d4:	b4ffffc2 	cbz	x2, 802000cc <_enter_el1+0x64>

    mov x3, #SPSel_SP							
    802000d8:	d2800023 	mov	x3, #0x1                   	// #1
	msr SPSEL, x3	
    802000dc:	d5184203 	msr	spsel, x3

    adr x1, _stack_base
    802000e0:	10401e01 	adr	x1, 802804a0 <_stack_base>
    ldr x2, =STACK_SIZE
    802000e4:	580002e2 	ldr	x2, 80200140 <clear+0x40>
    add x1, x1, x2
    802000e8:	8b020021 	add	x1, x1, x2
#ifndef SINGLE_CORE
    madd x1, x0, x2, x1
    802000ec:	9b020401 	madd	x1, x0, x2, x1
#endif
    mov sp, x1
    802000f0:	9100003f 	mov	sp, x1
   
    //TODO: other c runtime init (ctors, etc...)

    b _init
    802000f4:	14000244 	b	80200a04 <_init>
    b _exit
    802000f8:	14000232 	b	802009c0 <_exit>

00000000802000fc <psci_wake_up>:

.global psci_wake_up
psci_wake_up:
    b .
    802000fc:	14000000 	b	802000fc <psci_wake_up>

0000000080200100 <clear>:

 .func clear
clear:
2:
	cmp	x16, x17			
    80200100:	eb11021f 	cmp	x16, x17
	b.ge 1f				
    80200104:	5400006a 	b.ge	80200110 <clear+0x10>  // b.tcont
	str	xzr, [x16], #8	
    80200108:	f800861f 	str	xzr, [x16], #8
	b	2b				
    8020010c:	17fffffd 	b	80200100 <clear>
1:
	ret
    80200110:	d65f03c0 	ret
    80200114:	00000000 	udf	#0
    80200118:	0004ff00 	.word	0x0004ff00
    8020011c:	00000000 	.word	0x00000000
    80200120:	00802510 	.word	0x00802510
    80200124:	00000000 	.word	0x00000000
    80200128:	30c51835 	.word	0x30c51835
    8020012c:	00000000 	.word	0x00000000
    80200130:	80220000 	.word	0x80220000
    80200134:	00000000 	.word	0x00000000
    80200138:	80280498 	.word	0x80280498
    8020013c:	00000000 	.word	0x00000000
    80200140:	00004000 	.word	0x00004000
    80200144:	00000000 	.word	0x00000000

Disassembly of section .text:

0000000080200800 <irq_set_handler>:
#include <irq.h>

irq_handler_t irq_handlers[IRQ_NUM]; 

void irq_set_handler(unsigned id, irq_handler_t handler){
    if(id < IRQ_NUM)
    80200800:	710ffc1f 	cmp	w0, #0x3ff
    80200804:	540000a8 	b.hi	80200818 <irq_set_handler+0x18>  // b.pmore
        irq_handlers[id] = handler;
    80200808:	90000102 	adrp	x2, 80220000 <irq_handlers>
    8020080c:	91000042 	add	x2, x2, #0x0
    80200810:	f8205841 	str	x1, [x2, w0, uxtw #3]
    else if (id == IRQ_LPI_MIN)
        irq_handlers[250] = handler;    //Aleatory id just for test measurements
}
    80200814:	d65f03c0 	ret
    else if (id == IRQ_LPI_MIN)
    80200818:	7140081f 	cmp	w0, #0x2, lsl #12
    8020081c:	54ffffc1 	b.ne	80200814 <irq_set_handler+0x14>  // b.any
        irq_handlers[250] = handler;    //Aleatory id just for test measurements
    80200820:	90000100 	adrp	x0, 80220000 <irq_handlers>
    80200824:	f903e801 	str	x1, [x0, #2000]
}
    80200828:	d65f03c0 	ret
    8020082c:	d503201f 	nop

0000000080200830 <irq_handle>:

void irq_handle(unsigned id){
    if(id < IRQ_NUM && irq_handlers[id] != NULL)
    80200830:	90000102 	adrp	x2, 80220000 <irq_handlers>
void irq_handle(unsigned id){
    80200834:	2a0003e1 	mov	w1, w0
    if(id < IRQ_NUM && irq_handlers[id] != NULL)
    80200838:	91000042 	add	x2, x2, #0x0
    8020083c:	710ffc1f 	cmp	w0, #0x3ff
    80200840:	540000a8 	b.hi	80200854 <irq_handle+0x24>  // b.pmore
    80200844:	f8615843 	ldr	x3, [x2, w1, uxtw #3]
    80200848:	b4000063 	cbz	x3, 80200854 <irq_handle+0x24>
        irq_handlers[id](id);
    8020084c:	aa0303f0 	mov	x16, x3
    80200850:	d61f0200 	br	x16
    else{
        irq_handlers[250](id);
    80200854:	f943e842 	ldr	x2, [x2, #2000]
    80200858:	2a0103e0 	mov	w0, w1
    8020085c:	aa0203f0 	mov	x16, x2
    80200860:	d61f0200 	br	x16
	...

0000000080200870 <_read>:
#include <cpu.h>
#include <fences.h>
#include <wfi.h>

int _read(int file, char *ptr, int len)
{
    80200870:	a9bd7bfd 	stp	x29, x30, [sp, #-48]!
    80200874:	910003fd 	mov	x29, sp
    80200878:	f90013f5 	str	x21, [sp, #32]
    8020087c:	2a0203f5 	mov	w21, w2
    int i;
    for (i = 0; i < len; ++i)
    80200880:	7100005f 	cmp	w2, #0x0
    80200884:	5400014d 	b.le	802008ac <_read+0x3c>
    80200888:	a90153f3 	stp	x19, x20, [sp, #16]
    8020088c:	aa0103f3 	mov	x19, x1
    80200890:	8b22c034 	add	x20, x1, w2, sxtw
    80200894:	d503201f 	nop
    {
        ptr[i] = uart_getchar();
    80200898:	9400007a 	bl	80200a80 <uart_getchar>
    8020089c:	38001660 	strb	w0, [x19], #1
    for (i = 0; i < len; ++i)
    802008a0:	eb14027f 	cmp	x19, x20
    802008a4:	54ffffa1 	b.ne	80200898 <_read+0x28>  // b.any
    802008a8:	a94153f3 	ldp	x19, x20, [sp, #16]
    }

    return len;
}
    802008ac:	2a1503e0 	mov	w0, w21
    802008b0:	f94013f5 	ldr	x21, [sp, #32]
    802008b4:	a8c37bfd 	ldp	x29, x30, [sp], #48
    802008b8:	d65f03c0 	ret
    802008bc:	d503201f 	nop

00000000802008c0 <_write>:

int _write(int file, char *ptr, int len)
{
    802008c0:	a9bd7bfd 	stp	x29, x30, [sp, #-48]!
    802008c4:	910003fd 	mov	x29, sp
    802008c8:	a90153f3 	stp	x19, x20, [sp, #16]
    802008cc:	8b22c034 	add	x20, x1, w2, sxtw
    802008d0:	f90013f5 	str	x21, [sp, #32]
    802008d4:	2a0203f5 	mov	w21, w2
    int i;
    for (i = 0; i < len; ++i)
    802008d8:	7100005f 	cmp	w2, #0x0
    802008dc:	5400022d 	b.le	80200920 <_write+0x60>
    802008e0:	aa0103f3 	mov	x19, x1
    802008e4:	14000005 	b	802008f8 <_write+0x38>
    802008e8:	91000673 	add	x19, x19, #0x1
    {
        if (ptr[i] == '\n')
        {
            uart_putc('\r');
        }
        uart_putc(ptr[i]);
    802008ec:	94000061 	bl	80200a70 <uart_putc>
    for (i = 0; i < len; ++i)
    802008f0:	eb14027f 	cmp	x19, x20
    802008f4:	54000160 	b.eq	80200920 <_write+0x60>  // b.none
        if (ptr[i] == '\n')
    802008f8:	39400260 	ldrb	w0, [x19]
    802008fc:	7100281f 	cmp	w0, #0xa
    80200900:	54ffff41 	b.ne	802008e8 <_write+0x28>  // b.any
            uart_putc('\r');
    80200904:	528001a0 	mov	w0, #0xd                   	// #13
    80200908:	9400005a 	bl	80200a70 <uart_putc>
        uart_putc(ptr[i]);
    8020090c:	39400260 	ldrb	w0, [x19]
    for (i = 0; i < len; ++i)
    80200910:	91000673 	add	x19, x19, #0x1
        uart_putc(ptr[i]);
    80200914:	94000057 	bl	80200a70 <uart_putc>
    for (i = 0; i < len; ++i)
    80200918:	eb14027f 	cmp	x19, x20
    8020091c:	54fffee1 	b.ne	802008f8 <_write+0x38>  // b.any
    }

    return len;
}
    80200920:	a94153f3 	ldp	x19, x20, [sp, #16]
    80200924:	2a1503e0 	mov	w0, w21
    80200928:	f94013f5 	ldr	x21, [sp, #32]
    8020092c:	a8c37bfd 	ldp	x29, x30, [sp], #48
    80200930:	d65f03c0 	ret

0000000080200934 <_lseek>:

int _lseek(int file, int ptr, int dir)
{
    80200934:	a9bf7bfd 	stp	x29, x30, [sp, #-16]!
    80200938:	910003fd 	mov	x29, sp
    errno = ESPIPE;
    8020093c:	940007b1 	bl	80202800 <__errno>
    80200940:	aa0003e1 	mov	x1, x0
    80200944:	528003a2 	mov	w2, #0x1d                  	// #29
    return -1;
}
    80200948:	12800000 	mov	w0, #0xffffffff            	// #-1
    errno = ESPIPE;
    8020094c:	b9000022 	str	w2, [x1]
}
    80200950:	a8c17bfd 	ldp	x29, x30, [sp], #16
    80200954:	d65f03c0 	ret
    80200958:	d503201f 	nop
    8020095c:	d503201f 	nop

0000000080200960 <_close>:

int _close(int file)
{
    return -1;
}
    80200960:	12800000 	mov	w0, #0xffffffff            	// #-1
    80200964:	d65f03c0 	ret
    80200968:	d503201f 	nop
    8020096c:	d503201f 	nop

0000000080200970 <_fstat>:

int _fstat(int file, struct stat *st)
{
    st->st_mode = S_IFCHR;
    80200970:	52840002 	mov	w2, #0x2000                	// #8192
    return 0;
}
    80200974:	52800000 	mov	w0, #0x0                   	// #0
    st->st_mode = S_IFCHR;
    80200978:	b9000422 	str	w2, [x1, #4]
}
    8020097c:	d65f03c0 	ret

0000000080200980 <_isatty>:

int _isatty(int fd)
{
    80200980:	a9bf7bfd 	stp	x29, x30, [sp, #-16]!
    80200984:	910003fd 	mov	x29, sp
    errno = ENOTTY;
    80200988:	9400079e 	bl	80202800 <__errno>
    8020098c:	aa0003e1 	mov	x1, x0
    80200990:	52800322 	mov	w2, #0x19                  	// #25
    return 0;
}
    80200994:	52800000 	mov	w0, #0x0                   	// #0
    errno = ENOTTY;
    80200998:	b9000022 	str	w2, [x1]
}
    8020099c:	a8c17bfd 	ldp	x29, x30, [sp], #16
    802009a0:	d65f03c0 	ret

00000000802009a4 <_sbrk>:

void* _sbrk(int increment)
{
    extern char _heap_base;
    static char* heap_end = &_heap_base;
    char* current_heap_end = heap_end;
    802009a4:	b0000082 	adrp	x2, 80211000 <__mprec_tens+0x180>
{
    802009a8:	2a0003e1 	mov	w1, w0
    char* current_heap_end = heap_end;
    802009ac:	f9401040 	ldr	x0, [x2, #32]
    heap_end += increment;
    802009b0:	8b21c001 	add	x1, x0, w1, sxtw
    802009b4:	f9001041 	str	x1, [x2, #32]
    return current_heap_end;
}
    802009b8:	d65f03c0 	ret
    802009bc:	d503201f 	nop

00000000802009c0 <_exit>:
    DMB(ishld);
}

static inline void fence_ord()
{
    DMB(ish);
    802009c0:	d5033bbf 	dmb	ish
    802009c4:	d503201f 	nop
#ifndef WFI_H
#define WFI_H

static inline void wfi(){
    asm volatile("wfi\n\t" ::: "memory");
    802009c8:	d503207f 	wfi

void _exit(int return_value)
{
    fence_ord();
    while (1) {
    802009cc:	17ffffff 	b	802009c8 <_exit+0x8>

00000000802009d0 <_getpid>:
}

int _getpid(void)
{
  return 1;
}
    802009d0:	52800020 	mov	w0, #0x1                   	// #1
    802009d4:	d65f03c0 	ret
    802009d8:	d503201f 	nop
    802009dc:	d503201f 	nop

00000000802009e0 <_kill>:

int _kill(int pid, int sig)
{
    802009e0:	a9bf7bfd 	stp	x29, x30, [sp, #-16]!
    802009e4:	910003fd 	mov	x29, sp
    errno = EINVAL;
    802009e8:	94000786 	bl	80202800 <__errno>
    802009ec:	aa0003e1 	mov	x1, x0
    802009f0:	528002c2 	mov	w2, #0x16                  	// #22
    return -1;
}
    802009f4:	12800000 	mov	w0, #0xffffffff            	// #-1
    errno = EINVAL;
    802009f8:	b9000022 	str	w2, [x1]
}
    802009fc:	a8c17bfd 	ldp	x29, x30, [sp], #16
    80200a00:	d65f03c0 	ret

0000000080200a04 <_init>:

static bool init_done = false;
static spinlock_t init_lock = SPINLOCK_INITVAL;

__attribute__((weak))
void _init(){
    80200a04:	a9bd7bfd 	stp	x29, x30, [sp, #-48]!
static inline void spin_lock(spinlock_t* lock){

    uint32_t const ONE = 1;
    spinlock_t tmp;

    asm volatile (
    80200a08:	d0000100 	adrp	x0, 80222000 <init_lock>
    80200a0c:	52800021 	mov	w1, #0x1                   	// #1
    80200a10:	910003fd 	mov	x29, sp
    80200a14:	f9000bf3 	str	x19, [sp, #16]
    80200a18:	91000013 	add	x19, x0, #0x0
    80200a1c:	885ffe62 	ldaxr	w2, [x19]
    80200a20:	35ffffe2 	cbnz	w2, 80200a1c <_init+0x18>
    80200a24:	88027e61 	stxr	w2, w1, [x19]
    80200a28:	35ffffa2 	cbnz	w2, 80200a1c <_init+0x18>

    spin_lock(&init_lock);
    if(!init_done) {
    80200a2c:	39401260 	ldrb	w0, [x19, #4]
    80200a30:	b9002fe2 	str	w2, [sp, #44]
    80200a34:	360000a0 	tbz	w0, #0, 80200a48 <_init+0x44>

}

static inline void spin_unlock(spinlock_t* lock){

    asm volatile ("stlr wzr, %0\n\t" :: "Q"(*lock));
    80200a38:	889ffe7f 	stlr	wzr, [x19]
        init_done = true;
        uart_init();
    }
    spin_unlock(&init_lock);
    
    arch_init();
    80200a3c:	9400003d 	bl	80200b30 <arch_init>

    int ret = main();
    80200a40:	94000514 	bl	80201e90 <main>
    _exit(ret);
    80200a44:	97ffffdf 	bl	802009c0 <_exit>
        init_done = true;
    80200a48:	39001261 	strb	w1, [x19, #4]
        uart_init();
    80200a4c:	94000005 	bl	80200a60 <uart_init>
    80200a50:	17fffffa 	b	80200a38 <_init+0x34>
	...

0000000080200a60 <uart_init>:
#include <nxp_uart.h>

volatile struct lpuart * const uart = UART_ADDR;

void uart_init(){
   nxp_uart_init(uart);
    80200a60:	d2ab40c0 	mov	x0, #0x5a060000            	// #1510342656
    80200a64:	14000013 	b	80200ab0 <nxp_uart_init>
    80200a68:	d503201f 	nop
    80200a6c:	d503201f 	nop

0000000080200a70 <uart_putc>:
}

void uart_putc(char c){
    nxp_uart_putc(uart, c);
    80200a70:	2a0003e1 	mov	w1, w0
    80200a74:	d2ab40c0 	mov	x0, #0x5a060000            	// #1510342656
    80200a78:	14000017 	b	80200ad4 <nxp_uart_putc>
    80200a7c:	d503201f 	nop

0000000080200a80 <uart_getchar>:
}

char uart_getchar(){
    return nxp_uart_getchar(uart);
    80200a80:	d2ab40c0 	mov	x0, #0x5a060000            	// #1510342656
    80200a84:	1400001b 	b	80200af0 <nxp_uart_getchar>
    80200a88:	d503201f 	nop
    80200a8c:	d503201f 	nop

0000000080200a90 <uart_enable_rxirq>:
}

void uart_enable_rxirq(){
    nxp_uart_enable_rxirq(uart);
    80200a90:	d2ab40c0 	mov	x0, #0x5a060000            	// #1510342656
    80200a94:	1400001b 	b	80200b00 <nxp_uart_enable_rxirq>
    80200a98:	d503201f 	nop
    80200a9c:	d503201f 	nop

0000000080200aa0 <uart_clear_rxirq>:
}

void uart_clear_rxirq(){
    nxp_uart_clear_rxirq(uart);
    80200aa0:	d2ab40c0 	mov	x0, #0x5a060000            	// #1510342656
    80200aa4:	1400001b 	b	80200b10 <nxp_uart_clear_rxirq>
	...

0000000080200ab0 <nxp_uart_init>:
#include <nxp_uart.h>

void nxp_uart_init(volatile struct lpuart *uart){
   
    //reset
    uart->global &= ~LPUART_GLOBAL_RST_BIT; 
    80200ab0:	b9400801 	ldr	w1, [x0, #8]

    // assumes 80 MHz source clock
    uart->baud = LPUART_BAUD_80MHZ_115200;
    80200ab4:	52801143 	mov	w3, #0x8a                  	// #138
    80200ab8:	72a08043 	movk	w3, #0x402, lsl #16
   
    //enable TX and RX 
    uart->ctrl = LPUART_CTRL_TE_BIT | LPUART_CTRL_RE_BIT; 
    80200abc:	52a00182 	mov	w2, #0xc0000               	// #786432
    uart->global &= ~LPUART_GLOBAL_RST_BIT; 
    80200ac0:	121e7821 	and	w1, w1, #0xfffffffd
    80200ac4:	b9000801 	str	w1, [x0, #8]
    uart->baud = LPUART_BAUD_80MHZ_115200;
    80200ac8:	b9001003 	str	w3, [x0, #16]
    uart->ctrl = LPUART_CTRL_TE_BIT | LPUART_CTRL_RE_BIT; 
    80200acc:	b9001802 	str	w2, [x0, #24]
}
    80200ad0:	d65f03c0 	ret

0000000080200ad4 <nxp_uart_putc>:

void nxp_uart_putc(volatile struct lpuart *uart, char c){
    80200ad4:	12001c21 	and	w1, w1, #0xff
    while(!(uart->stat & LPUART_STAT_TDRE_BIT));
    80200ad8:	b9401402 	ldr	w2, [x0, #20]
    80200adc:	36bfffe2 	tbz	w2, #23, 80200ad8 <nxp_uart_putc+0x4>
    uart->data = c;
    80200ae0:	b9001c01 	str	w1, [x0, #28]
}
    80200ae4:	d65f03c0 	ret
    80200ae8:	d503201f 	nop
    80200aec:	d503201f 	nop

0000000080200af0 <nxp_uart_getchar>:

char nxp_uart_getchar(volatile struct lpuart *uart){
    return uart->data;
    80200af0:	b9401c00 	ldr	w0, [x0, #28]
}
    80200af4:	d65f03c0 	ret
    80200af8:	d503201f 	nop
    80200afc:	d503201f 	nop

0000000080200b00 <nxp_uart_enable_rxirq>:

void nxp_uart_enable_rxirq(volatile struct lpuart *uart){
    uart->ctrl |= LPUART_CTRL_RIE_BIT;
    80200b00:	b9401801 	ldr	w1, [x0, #24]
    80200b04:	320b0021 	orr	w1, w1, #0x200000
    80200b08:	b9001801 	str	w1, [x0, #24]
}
    80200b0c:	d65f03c0 	ret

0000000080200b10 <nxp_uart_clear_rxirq>:
    return uart->data;
    80200b10:	b9401c01 	ldr	w1, [x0, #28]

void nxp_uart_clear_rxirq(volatile struct lpuart *uart){
    (void) nxp_uart_getchar(uart);
    uart->stat |= LPUART_STAT_OR_BIT;
    80200b14:	b9401401 	ldr	w1, [x0, #20]
    80200b18:	320d0021 	orr	w1, w1, #0x80000
    80200b1c:	b9001401 	str	w1, [x0, #20]
    80200b20:	d65f03c0 	ret
	...

0000000080200b30 <arch_init>:
#include <sysregs.h>

void _start();

__attribute__((weak))
void arch_init(){
    80200b30:	a9bd7bfd 	stp	x29, x30, [sp, #-48]!
    80200b34:	910003fd 	mov	x29, sp
    80200b38:	a90153f3 	stp	x19, x20, [sp, #16]
SYSREG_GEN_ACCESSORS(clidr_el1);
SYSREG_GEN_ACCESSORS(csselr_el1);
SYSREG_GEN_ACCESSORS(ccsidr_el1);
SYSREG_GEN_ACCESSORS(ccsidr2_el1);
SYSREG_GEN_ACCESSORS(ctr_el0);
SYSREG_GEN_ACCESSORS(mpidr_el1);
    80200b3c:	d53800b3 	mrs	x19, mpidr_el1
    unsigned long cpuid = get_cpuid();
    gic_init();
    80200b40:	940000dc 	bl	80200eb0 <gic_init>
#include <core.h>
#include <sysregs.h>

static inline unsigned long get_cpuid(){
    unsigned long cpuid = sysreg_mpidr_el1_read();
    return cpuid & MPIDR_CPU_MASK;
    80200b44:	92401e73 	and	x19, x19, #0xff
SYSREG_GEN_ACCESSORS(ttbr0_el1);
SYSREG_GEN_ACCESSORS(mair_el1);
SYSREG_GEN_ACCESSORS(cptr_el1);
SYSREG_GEN_ACCESSORS(id_aa64mmfr0_el1);
SYSREG_GEN_ACCESSORS(tpidr_el1);
SYSREG_GEN_ACCESSORS(cntfrq_el0);
    80200b48:	d53be001 	mrs	x1, cntfrq_el0
    TIMER_FREQ = sysreg_cntfrq_el0_read();
    80200b4c:	d0000100 	adrp	x0, 80222000 <init_lock>
SYSREG_GEN_ACCESSORS(cntv_ctl_el0);
    80200b50:	d2800034 	mov	x20, #0x1                   	// #1
    80200b54:	f9000401 	str	x1, [x0, #8]
    80200b58:	d51be334 	msr	cntv_ctl_el0, x20
    sysreg_cntv_ctl_el0_write(1);

#if !(defined(SINGLE_CORE) || defined(NO_FIRMWARE))
    if(cpuid == 0){
    80200b5c:	b50001b3 	cbnz	x19, 80200b90 <arch_init+0x60>
    80200b60:	f90013f5 	str	x21, [sp, #32]
    80200b64:	90000015 	adrp	x21, 80200000 <_start>
    80200b68:	910002b5 	add	x21, x21, #0x0
        size_t i = 0;
        int ret = PSCI_E_SUCCESS;
        do {
            if(i == cpuid) continue;
    80200b6c:	f100027f 	cmp	x19, #0x0
            ret = psci_cpu_on(i, (uintptr_t) _start, 0);
    80200b70:	aa1503e1 	mov	x1, x21
    80200b74:	9a941273 	csel	x19, x19, x20, ne	// ne = any
    80200b78:	d2800002 	mov	x2, #0x0                   	// #0
    80200b7c:	aa1303e0 	mov	x0, x19
        } while(i++, ret == PSCI_E_SUCCESS);
    80200b80:	91000673 	add	x19, x19, #0x1
            ret = psci_cpu_on(i, (uintptr_t) _start, 0);
    80200b84:	9400001f 	bl	80200c00 <psci_cpu_on>
        } while(i++, ret == PSCI_E_SUCCESS);
    80200b88:	34ffff20 	cbz	w0, 80200b6c <arch_init+0x3c>
    80200b8c:	f94013f5 	ldr	x21, [sp, #32]
static inline void arm_at_s12e1w(uintptr_t vaddr) {
     asm volatile("at s12e1w, %0" ::"r"(vaddr));
}

static inline void arm_unmask_irq() {
    asm volatile("MSR   DAIFClr, #2\n\t");
    80200b90:	d50342ff 	msr	daifclr, #0x2
    }
#endif
    arm_unmask_irq();
}
    80200b94:	a94153f3 	ldp	x19, x20, [sp, #16]
    80200b98:	a8c37bfd 	ldp	x29, x30, [sp], #48
    80200b9c:	d65f03c0 	ret

0000000080200ba0 <smc_call>:
	register unsigned long r0 asm("r0") = x0;
	register unsigned long r1 asm("r1") = x1;
	register unsigned long r2 asm("r2") = x2;
	register unsigned long r3 asm("r3") = x3;

    asm volatile(
    80200ba0:	d4000003 	smc	#0x0
			: "=r" (r0)
			: "r" (r0), "r" (r1), "r" (r2)
			: "r3");

	return r0;
}
    80200ba4:	d65f03c0 	ret
    80200ba8:	d503201f 	nop
    80200bac:	d503201f 	nop

0000000080200bb0 <psci_version>:
	register unsigned long r0 asm("r0") = x0;
    80200bb0:	d2b08000 	mov	x0, #0x84000000            	// #2214592512
	register unsigned long r1 asm("r1") = x1;
    80200bb4:	d2800001 	mov	x1, #0x0                   	// #0
	register unsigned long r2 asm("r2") = x2;
    80200bb8:	d2800002 	mov	x2, #0x0                   	// #0
    asm volatile(
    80200bbc:	d4000003 	smc	#0x0
--------------------------------- */

int32_t psci_version(void)
{
    return smc_call(PSCI_VERSION, 0, 0, 0);
}
    80200bc0:	d65f03c0 	ret

0000000080200bc4 <psci_cpu_suspend>:


int32_t psci_cpu_suspend(uint32_t power_state, uintptr_t entrypoint, 
                    unsigned long context_id)
{
    80200bc4:	2a0003e3 	mov	w3, w0
	register unsigned long r0 asm("r0") = x0;
    80200bc8:	d2800020 	mov	x0, #0x1                   	// #1
{
    80200bcc:	aa0103e2 	mov	x2, x1
	register unsigned long r0 asm("r0") = x0;
    80200bd0:	f2b88000 	movk	x0, #0xc400, lsl #16
	register unsigned long r1 asm("r1") = x1;
    80200bd4:	2a0303e1 	mov	w1, w3
    asm volatile(
    80200bd8:	d4000003 	smc	#0x0
    return smc_call(PSCI_CPU_SUSPEND, power_state, entrypoint, context_id);
}
    80200bdc:	d65f03c0 	ret

0000000080200be0 <psci_cpu_off>:
	register unsigned long r0 asm("r0") = x0;
    80200be0:	d2800040 	mov	x0, #0x2                   	// #2
	register unsigned long r1 asm("r1") = x1;
    80200be4:	d2800001 	mov	x1, #0x0                   	// #0
	register unsigned long r0 asm("r0") = x0;
    80200be8:	f2b08000 	movk	x0, #0x8400, lsl #16
	register unsigned long r2 asm("r2") = x2;
    80200bec:	d2800002 	mov	x2, #0x0                   	// #0
    asm volatile(
    80200bf0:	d4000003 	smc	#0x0

int32_t psci_cpu_off(void)
{
    return smc_call(PSCI_CPU_OFF, 0, 0, 0);
}
    80200bf4:	d65f03c0 	ret
    80200bf8:	d503201f 	nop
    80200bfc:	d503201f 	nop

0000000080200c00 <psci_cpu_on>:

int32_t psci_cpu_on(unsigned long target_cpu, uintptr_t entrypoint, 
                    unsigned long context_id)
{
    80200c00:	aa0003e3 	mov	x3, x0
	register unsigned long r0 asm("r0") = x0;
    80200c04:	d2800060 	mov	x0, #0x3                   	// #3
{
    80200c08:	aa0103e2 	mov	x2, x1
	register unsigned long r0 asm("r0") = x0;
    80200c0c:	f2b88000 	movk	x0, #0xc400, lsl #16
	register unsigned long r1 asm("r1") = x1;
    80200c10:	aa0303e1 	mov	x1, x3
    asm volatile(
    80200c14:	d4000003 	smc	#0x0
    return smc_call(PSCI_CPU_ON, target_cpu, entrypoint, context_id);
}
    80200c18:	d65f03c0 	ret
    80200c1c:	d503201f 	nop

0000000080200c20 <psci_affinity_info>:

int32_t psci_affinity_info(unsigned long target_affinity, 
                            uint32_t lowest_affinity_level)
{
    80200c20:	aa0003e3 	mov	x3, x0
	register unsigned long r0 asm("r0") = x0;
    80200c24:	d2800080 	mov	x0, #0x4                   	// #4
{
    80200c28:	2a0103e2 	mov	w2, w1
	register unsigned long r0 asm("r0") = x0;
    80200c2c:	f2b88000 	movk	x0, #0xc400, lsl #16
	register unsigned long r1 asm("r1") = x1;
    80200c30:	aa0303e1 	mov	x1, x3
    asm volatile(
    80200c34:	d4000003 	smc	#0x0
    return smc_call(PSCI_AFFINITY_INFO, target_affinity, 
                    lowest_affinity_level, 0);
}
    80200c38:	d65f03c0 	ret
    80200c3c:	00000000 	udf	#0

0000000080200c40 <irq_enable>:

#ifndef GIC_VERSION
#error "GIC_VERSION not defined for this platform"
#endif

void irq_enable(unsigned id) {
    80200c40:	a9be7bfd 	stp	x29, x30, [sp, #-32]!
   gic_set_enable(id, true); 
    80200c44:	52800021 	mov	w1, #0x1                   	// #1
void irq_enable(unsigned id) {
    80200c48:	910003fd 	mov	x29, sp
    80200c4c:	f9000bf3 	str	x19, [sp, #16]
   gic_set_enable(id, true); 
    80200c50:	2a0003f3 	mov	w19, w0
    80200c54:	aa1303e0 	mov	x0, x19
    80200c58:	94000326 	bl	802018f0 <gic_set_enable>
SYSREG_GEN_ACCESSORS(mpidr_el1);
    80200c5c:	d53800a1 	mrs	x1, mpidr_el1
   if(GIC_VERSION == GICV2) {
       gic_set_trgt(id, gic_get_trgt(id) | (1 << get_cpuid()));
   } else {
       gic_set_route(id, get_cpuid());
    80200c60:	aa1303e0 	mov	x0, x19
    80200c64:	92401c21 	and	x1, x1, #0xff
   }
}
    80200c68:	f9400bf3 	ldr	x19, [sp, #16]
    80200c6c:	a8c27bfd 	ldp	x29, x30, [sp], #32
       gic_set_route(id, get_cpuid());
    80200c70:	14000314 	b	802018c0 <gic_set_route>

0000000080200c74 <irq_set_prio>:

void irq_set_prio(unsigned id, unsigned prio){
    gic_set_prio(id, (uint8_t) prio);
    80200c74:	2a0003e0 	mov	w0, w0
    80200c78:	140002ce 	b	802017b0 <gic_set_prio>
    80200c7c:	d503201f 	nop

0000000080200c80 <irq_send_ipi>:
}

void irq_send_ipi(unsigned long target_cpu_mask) {
    80200c80:	a9be7bfd 	stp	x29, x30, [sp, #-32]!
    80200c84:	910003fd 	mov	x29, sp
    80200c88:	a90153f3 	stp	x19, x20, [sp, #16]
    80200c8c:	aa0003f4 	mov	x20, x0
    80200c90:	d2800013 	mov	x19, #0x0                   	// #0
    80200c94:	14000004 	b	80200ca4 <irq_send_ipi+0x24>
    for(int i = 0; i < sizeof(target_cpu_mask)*8; i++) {
    80200c98:	91000673 	add	x19, x19, #0x1
    80200c9c:	f101027f 	cmp	x19, #0x40
    80200ca0:	54000120 	b.eq	80200cc4 <irq_send_ipi+0x44>  // b.none
        if(target_cpu_mask & (1ull << i)) {
    80200ca4:	9ad32681 	lsr	x1, x20, x19
    80200ca8:	3607ff81 	tbz	w1, #0, 80200c98 <irq_send_ipi+0x18>
            gic_send_sgi(i, IPI_IRQ_ID);
    80200cac:	aa1303e0 	mov	x0, x19
    80200cb0:	d2800001 	mov	x1, #0x0                   	// #0
    for(int i = 0; i < sizeof(target_cpu_mask)*8; i++) {
    80200cb4:	91000673 	add	x19, x19, #0x1
            gic_send_sgi(i, IPI_IRQ_ID);
    80200cb8:	940002b7 	bl	80201794 <gic_send_sgi>
    for(int i = 0; i < sizeof(target_cpu_mask)*8; i++) {
    80200cbc:	f101027f 	cmp	x19, #0x40
    80200cc0:	54ffff21 	b.ne	80200ca4 <irq_send_ipi+0x24>  // b.any
        }
    }
}
    80200cc4:	a94153f3 	ldp	x19, x20, [sp, #16]
    80200cc8:	a8c27bfd 	ldp	x29, x30, [sp], #32
    80200ccc:	d65f03c0 	ret

0000000080200cd0 <timer_set>:
SYSREG_GEN_ACCESSORS(cntvct_el0);
    80200cd0:	d53be041 	mrs	x1, cntvct_el0
unsigned long TIMER_FREQ;

void timer_set(uint64_t n)
{
    uint64_t current = sysreg_cntvct_el0_read();
    sysreg_cntv_cval_el0_write(current + n);
    80200cd4:	8b010000 	add	x0, x0, x1
SYSREG_GEN_ACCESSORS(cntv_cval_el0);
    80200cd8:	d51be340 	msr	cntv_cval_el0, x0
}
    80200cdc:	d65f03c0 	ret

0000000080200ce0 <timer_get>:
SYSREG_GEN_ACCESSORS(cntvct_el0);
    80200ce0:	d53be040 	mrs	x0, cntvct_el0

uint64_t timer_get()
{
    uint64_t time = sysreg_cntvct_el0_read();
    return time; // assumes plat_freq = 100MHz
}
    80200ce4:	d65f03c0 	ret
	...

0000000080200cf0 <gic_num_irqs>:


inline unsigned long gic_num_irqs()
{
    uint32_t itlinenumber =
        bit_extract(gicd->TYPER, GICD_TYPER_ITLN_OFF, GICD_TYPER_ITLN_LEN);
    80200cf0:	b0000080 	adrp	x0, 80211000 <__mprec_tens+0x180>
    80200cf4:	f9401400 	ldr	x0, [x0, #40]
    80200cf8:	b9400400 	ldr	w0, [x0, #4]
    return 32 * itlinenumber + 1;
    80200cfc:	d37b1000 	ubfiz	x0, x0, #5, #5
}
    80200d00:	91000400 	add	x0, x0, #0x1
    80200d04:	d65f03c0 	ret
    80200d08:	d503201f 	nop
    80200d0c:	d503201f 	nop

0000000080200d10 <gic_cpu_init>:
SYSREG_GEN_ACCESSORS(icc_sre_el1);
    80200d10:	d538cca0 	mrs	x0, icc_sre_el1
//    }
//}

void gic_cpu_init()
{
    sysreg_icc_sre_el1_write(sysreg_icc_sre_el1_read() | ICC_SRE_SRE_BIT);
    80200d14:	b2400000 	orr	x0, x0, #0x1
    80200d18:	d518cca0 	msr	icc_sre_el1, x0
    ISB();
    80200d1c:	d5033fdf 	isb
    gicd->CTLR |= (1ull << 6);
    80200d20:	b0000080 	adrp	x0, 80211000 <__mprec_tens+0x180>
    80200d24:	9100a002 	add	x2, x0, #0x28
    80200d28:	f9401401 	ldr	x1, [x0, #40]
    gicr[get_cpuid()].WAKER &= ~GICR_ProcessorSleep_BIT;
    80200d2c:	f9400442 	ldr	x2, [x2, #8]
    gicd->CTLR |= (1ull << 6);
    80200d30:	b9400020 	ldr	w0, [x1]
    80200d34:	321a0000 	orr	w0, w0, #0x40
    80200d38:	b9000020 	str	w0, [x1]
SYSREG_GEN_ACCESSORS(mpidr_el1);
    80200d3c:	d53800a0 	mrs	x0, mpidr_el1
    gicr[get_cpuid()].WAKER &= ~GICR_ProcessorSleep_BIT;
    80200d40:	d36f1c00 	ubfiz	x0, x0, #17, #8
    80200d44:	8b000040 	add	x0, x2, x0
    80200d48:	b9401401 	ldr	w1, [x0, #20]
    80200d4c:	121e7821 	and	w1, w1, #0xfffffffd
    80200d50:	b9001401 	str	w1, [x0, #20]
    while(gicr[get_cpuid()].WAKER & GICR_ChildrenASleep_BIT) { }
    80200d54:	d503201f 	nop
    80200d58:	d53800a0 	mrs	x0, mpidr_el1
    80200d5c:	d36f1c00 	ubfiz	x0, x0, #17, #8
    80200d60:	8b000040 	add	x0, x2, x0
    80200d64:	b9401400 	ldr	w0, [x0, #20]
    80200d68:	3717ff80 	tbnz	w0, #2, 80200d58 <gic_cpu_init+0x48>
    80200d6c:	d53800a0 	mrs	x0, mpidr_el1
    gicr[get_cpuid()].IGROUPR0 = -1;
    80200d70:	d36f1c00 	ubfiz	x0, x0, #17, #8
    80200d74:	12800003 	mov	w3, #0xffffffff            	// #-1
    80200d78:	8b000040 	add	x0, x2, x0
    80200d7c:	91404000 	add	x0, x0, #0x10, lsl #12
    80200d80:	b9008003 	str	w3, [x0, #128]
    80200d84:	d53800a0 	mrs	x0, mpidr_el1
    gicr[get_cpuid()].ICENABLER0 = -1;
    80200d88:	d36f1c00 	ubfiz	x0, x0, #17, #8
    80200d8c:	8b000040 	add	x0, x2, x0
    80200d90:	91404000 	add	x0, x0, #0x10, lsl #12
    80200d94:	b9018003 	str	w3, [x0, #384]
    80200d98:	d53800a0 	mrs	x0, mpidr_el1
    gicr[get_cpuid()].ICPENDR0 = -1;
    80200d9c:	d36f1c00 	ubfiz	x0, x0, #17, #8
    80200da0:	8b000040 	add	x0, x2, x0
    80200da4:	91404000 	add	x0, x0, #0x10, lsl #12
    80200da8:	b9028003 	str	w3, [x0, #640]
    80200dac:	d53800a0 	mrs	x0, mpidr_el1
    gicr[get_cpuid()].ICACTIVER0 = -1;
    80200db0:	d36f1c00 	ubfiz	x0, x0, #17, #8
    for (int i = 0; i < GIC_NUM_PRIO_REGS(GIC_CPU_PRIV); i++) {
    80200db4:	52800001 	mov	w1, #0x0                   	// #0
    gicr[get_cpuid()].ICACTIVER0 = -1;
    80200db8:	8b000040 	add	x0, x2, x0
    80200dbc:	91404000 	add	x0, x0, #0x10, lsl #12
    80200dc0:	b9038003 	str	w3, [x0, #896]
    for (int i = 0; i < GIC_NUM_PRIO_REGS(GIC_CPU_PRIV); i++) {
    80200dc4:	d503201f 	nop
    80200dc8:	d53800a0 	mrs	x0, mpidr_el1
        gicr[get_cpuid()].IPRIORITYR[i] = -1;
    80200dcc:	d36f1c00 	ubfiz	x0, x0, #17, #8
    80200dd0:	8b000040 	add	x0, x2, x0
    80200dd4:	8b21c800 	add	x0, x0, w1, sxtw #2
    for (int i = 0; i < GIC_NUM_PRIO_REGS(GIC_CPU_PRIV); i++) {
    80200dd8:	11000421 	add	w1, w1, #0x1
        gicr[get_cpuid()].IPRIORITYR[i] = -1;
    80200ddc:	91404000 	add	x0, x0, #0x10, lsl #12
    80200de0:	b9040003 	str	w3, [x0, #1024]
    for (int i = 0; i < GIC_NUM_PRIO_REGS(GIC_CPU_PRIV); i++) {
    80200de4:	7100203f 	cmp	w1, #0x8
    80200de8:	54ffff01 	b.ne	80200dc8 <gic_cpu_init+0xb8>  // b.any
SYSREG_GEN_ACCESSORS(icc_pmr_el1);
    80200dec:	92800000 	mov	x0, #0xffffffffffffffff    	// #-1
    80200df0:	d5184600 	msr	icc_pmr_el1, x0
SYSREG_GEN_ACCESSORS(icc_ctlr_el1);
    80200df4:	d2800020 	mov	x0, #0x1                   	// #1
    80200df8:	d518cc80 	msr	icc_ctlr_el1, x0
SYSREG_GEN_ACCESSORS(icc_igrpen1_el1);
    80200dfc:	d518cce0 	msr	icc_igrpen1_el1, x0
    gicr_init();
    gicc_init();
}
    80200e00:	d65f03c0 	ret

0000000080200e04 <gicd_init>:
        bit_extract(gicd->TYPER, GICD_TYPER_ITLN_OFF, GICD_TYPER_ITLN_LEN);
    80200e04:	b0000080 	adrp	x0, 80211000 <__mprec_tens+0x180>
void gicd_init()
{
    size_t int_num = gic_num_irqs();

    /* Bring distributor to known state */
    for (int i = GIC_NUM_PRIVINT_REGS; i < GIC_NUM_INT_REGS(int_num); i++) {
    80200e08:	52800022 	mov	w2, #0x1                   	// #1
        gicd->IGROUPR[i] = -1;
    80200e0c:	12800001 	mov	w1, #0xffffffff            	// #-1
        bit_extract(gicd->TYPER, GICD_TYPER_ITLN_OFF, GICD_TYPER_ITLN_LEN);
    80200e10:	f9401403 	ldr	x3, [x0, #40]
    80200e14:	b9400460 	ldr	w0, [x3, #4]
    return 32 * itlinenumber + 1;
    80200e18:	d37b1000 	ubfiz	x0, x0, #5, #5
    80200e1c:	91000405 	add	x5, x0, #0x1
    for (int i = GIC_NUM_PRIVINT_REGS; i < GIC_NUM_INT_REGS(int_num); i++) {
    80200e20:	d345fc00 	lsr	x0, x0, #5
    80200e24:	2a0003e4 	mov	w4, w0
    80200e28:	f100041f 	cmp	x0, #0x1
    80200e2c:	54000389 	b.ls	80200e9c <gicd_init+0x98>  // b.plast
        gicd->IGROUPR[i] = -1;
    80200e30:	8b22c860 	add	x0, x3, w2, sxtw #2
    for (int i = GIC_NUM_PRIVINT_REGS; i < GIC_NUM_INT_REGS(int_num); i++) {
    80200e34:	11000442 	add	w2, w2, #0x1
        gicd->IGROUPR[i] = -1;
    80200e38:	b9008001 	str	w1, [x0, #128]
        /**
         * Make sure all interrupts are not enabled, non pending,
         * non active.
         */
        gicd->ICENABLER[i] = -1;
    80200e3c:	b9018001 	str	w1, [x0, #384]
        gicd->ICPENDR[i] = -1;
    80200e40:	b9028001 	str	w1, [x0, #640]
        gicd->ICACTIVER[i] = -1;
    80200e44:	b9038001 	str	w1, [x0, #896]
    for (int i = GIC_NUM_PRIVINT_REGS; i < GIC_NUM_INT_REGS(int_num); i++) {
    80200e48:	6b02009f 	cmp	w4, w2
    80200e4c:	54ffff21 	b.ne	80200e30 <gicd_init+0x2c>  // b.any
    }

    /* All interrupts have lowest priority possible by default */
    for (int i = GIC_CPU_PRIV; i < GIC_NUM_PRIO_REGS(int_num); i++)
    80200e50:	d342fca4 	lsr	x4, x5, #2
    80200e54:	f1020cbf 	cmp	x5, #0x83
    80200e58:	54000229 	b.ls	80200e9c <gicd_init+0x98>  // b.plast
    80200e5c:	52800400 	mov	w0, #0x20                  	// #32
        gicd->IPRIORITYR[i] = -1;
    80200e60:	12800005 	mov	w5, #0xffffffff            	// #-1
    80200e64:	d503201f 	nop
    80200e68:	8b20c861 	add	x1, x3, w0, sxtw #2
    80200e6c:	2a0003e2 	mov	w2, w0
    for (int i = GIC_CPU_PRIV; i < GIC_NUM_PRIO_REGS(int_num); i++)
    80200e70:	11000400 	add	w0, w0, #0x1
        gicd->IPRIORITYR[i] = -1;
    80200e74:	b9040025 	str	w5, [x1, #1024]
    for (int i = GIC_CPU_PRIV; i < GIC_NUM_PRIO_REGS(int_num); i++)
    80200e78:	6b00009f 	cmp	w4, w0
    80200e7c:	54ffff61 	b.ne	80200e68 <gicd_init+0x64>  // b.any

    /* No CPU targets for any interrupt by default */
    for (int i = GIC_CPU_PRIV; i < GIC_NUM_TARGET_REGS(int_num); i++)
    80200e80:	52800400 	mov	w0, #0x20                  	// #32
    80200e84:	d503201f 	nop
        gicd->ITARGETSR[i] = 0;
    80200e88:	8b20c864 	add	x4, x3, w0, sxtw #2
    for (int i = GIC_CPU_PRIV; i < GIC_NUM_TARGET_REGS(int_num); i++)
    80200e8c:	6b00005f 	cmp	w2, w0
    80200e90:	11000400 	add	w0, w0, #0x1
        gicd->ITARGETSR[i] = 0;
    80200e94:	b908009f 	str	wzr, [x4, #2048]
    for (int i = GIC_CPU_PRIV; i < GIC_NUM_TARGET_REGS(int_num); i++)
    80200e98:	54ffff81 	b.ne	80200e88 <gicd_init+0x84>  // b.any
    /* ICFGR are platform dependent, lets leave them as is */

    /* No need to setup gicd->NSACR as all interrupts are  setup to group 1 */

    /* Enable distributor and affinity routing */
    gicd->CTLR |= GICD_CTLR_ARE_NS_BIT | GICD_CTLR_ENA_BIT;
    80200e9c:	b9400060 	ldr	w0, [x3]
    80200ea0:	52800241 	mov	w1, #0x12                  	// #18
    80200ea4:	2a010000 	orr	w0, w0, w1
    80200ea8:	b9000060 	str	w0, [x3]
}
    80200eac:	d65f03c0 	ret

0000000080200eb0 <gic_init>:

void gic_init()
{
    80200eb0:	a9bf7bfd 	stp	x29, x30, [sp, #-16]!
    80200eb4:	910003fd 	mov	x29, sp
    gic_cpu_init();
    80200eb8:	97ffff96 	bl	80200d10 <gic_cpu_init>
SYSREG_GEN_ACCESSORS(mpidr_el1);
    80200ebc:	d53800a0 	mrs	x0, mpidr_el1

    if (get_cpuid() == 0) {
    80200ec0:	72001c1f 	tst	w0, #0xff
    80200ec4:	54000060 	b.eq	80200ed0 <gic_init+0x20>  // b.none
        gicd_init();
        its_init(); /*Alloc tables and map lpis*/
        printf("Baremetal: GIC init\n");
    }

}
    80200ec8:	a8c17bfd 	ldp	x29, x30, [sp], #16
    80200ecc:	d65f03c0 	ret
        gicd_init();
    80200ed0:	97ffffcd 	bl	80200e04 <gicd_init>
        its_init(); /*Alloc tables and map lpis*/
    80200ed4:	9400038f 	bl	80201d10 <its_init>
}
    80200ed8:	a8c17bfd 	ldp	x29, x30, [sp], #16
        printf("Baremetal: GIC init\n");
    80200edc:	90000080 	adrp	x0, 80210000 <__trunctfdf2+0xc0>
    80200ee0:	910e2000 	add	x0, x0, #0x388
    80200ee4:	140006c3 	b	802029f0 <puts>
    80200ee8:	d503201f 	nop
    80200eec:	d503201f 	nop

0000000080200ef0 <gic_handle>:

void gic_handle()
{
    80200ef0:	a9be7bfd 	stp	x29, x30, [sp, #-32]!
    80200ef4:	910003fd 	mov	x29, sp
    80200ef8:	a90153f3 	stp	x19, x20, [sp, #16]
SYSREG_GEN_ACCESSORS(icc_iar1_el1);
    80200efc:	d538cc14 	mrs	x20, icc_iar1_el1
    unsigned long ack = sysreg_icc_iar1_el1_read();
    unsigned long id = ack & ((1UL << 24) -1);
    80200f00:	92405e93 	and	x19, x20, #0xffffff

    printf("IRQ received with id %d\n",id);
    80200f04:	90000080 	adrp	x0, 80210000 <__trunctfdf2+0xc0>
    80200f08:	aa1303e1 	mov	x1, x19
    80200f0c:	910e8000 	add	x0, x0, #0x3a0
    80200f10:	9400065c 	bl	80202880 <printf>

    if (id >= 1022 && id != 8192) return;
    80200f14:	f10ff67f 	cmp	x19, #0x3fd
    80200f18:	d2840000 	mov	x0, #0x2000                	// #8192
    80200f1c:	fa408264 	ccmp	x19, x0, #0x4, hi	// hi = pmore
    80200f20:	54000081 	b.ne	80200f30 <gic_handle+0x40>  // b.any

    irq_handle(id);
    80200f24:	2a1303e0 	mov	w0, w19
    80200f28:	97fffe42 	bl	80200830 <irq_handle>
SYSREG_GEN_ACCESSORS(icc_eoir1_el1);
    80200f2c:	d518cc34 	msr	icc_eoir1_el1, x20

    sysreg_icc_eoir1_el1_write(ack);
    //sysreg_icc_dir_el1_write(ack);
}
    80200f30:	a94153f3 	ldp	x19, x20, [sp, #16]
    80200f34:	a8c27bfd 	ldp	x29, x30, [sp], #32
    80200f38:	d65f03c0 	ret
    80200f3c:	d503201f 	nop

0000000080200f40 <gicd_get_prio>:

unsigned long gicd_get_prio(unsigned long int_id)
{
    80200f40:	d10043ff 	sub	sp, sp, #0x10
    unsigned long reg_ind = GIC_PRIO_REG(int_id);
    80200f44:	d37df002 	lsl	x2, x0, #3
    asm volatile (
    80200f48:	d0000101 	adrp	x1, 80222000 <init_lock>
    80200f4c:	52800023 	mov	w3, #0x1                   	// #1
    80200f50:	91004024 	add	x4, x1, #0x10
    80200f54:	d342f000 	ubfx	x0, x0, #2, #59
    80200f58:	885ffc85 	ldaxr	w5, [x4]
    80200f5c:	35ffffe5 	cbnz	w5, 80200f58 <gicd_get_prio+0x18>
    80200f60:	88057c83 	stxr	w5, w3, [x4]
    80200f64:	35ffffa5 	cbnz	w5, 80200f58 <gicd_get_prio+0x18>
    unsigned long off = GIC_PRIO_OFF(int_id);

    spin_lock(&gicd_lock);

    unsigned long prio =
        gicd->IPRIORITYR[reg_ind] >> off & BIT_MASK(off, GIC_PRIO_BITS);
    80200f68:	b0000081 	adrp	x1, 80211000 <__mprec_tens+0x180>
    80200f6c:	b9000fe5 	str	w5, [sp, #12]
    unsigned long off = GIC_PRIO_OFF(int_id);
    80200f70:	927d0442 	and	x2, x2, #0x18
        gicd->IPRIORITYR[reg_ind] >> off & BIT_MASK(off, GIC_PRIO_BITS);
    80200f74:	f9401421 	ldr	x1, [x1, #40]
    80200f78:	8b000820 	add	x0, x1, x0, lsl #2
    80200f7c:	b9440003 	ldr	w3, [x0, #1024]
    asm volatile ("stlr wzr, %0\n\t" :: "Q"(*lock));
    80200f80:	889ffc9f 	stlr	wzr, [x4]
    80200f84:	92800001 	mov	x1, #0xffffffffffffffff    	// #-1
    80200f88:	11002044 	add	w4, w2, #0x8
    80200f8c:	aa0103e0 	mov	x0, x1
    80200f90:	1ac22463 	lsr	w3, w3, w2
    80200f94:	9ac22021 	lsl	x1, x1, x2
    unsigned long prio =
    80200f98:	8a030021 	and	x1, x1, x3
        gicd->IPRIORITYR[reg_ind] >> off & BIT_MASK(off, GIC_PRIO_BITS);
    80200f9c:	9ac42000 	lsl	x0, x0, x4

    spin_unlock(&gicd_lock);

    return prio;
}
    80200fa0:	8a200020 	bic	x0, x1, x0
    80200fa4:	910043ff 	add	sp, sp, #0x10
    80200fa8:	d65f03c0 	ret
    80200fac:	d503201f 	nop

0000000080200fb0 <gicd_set_icfgr>:

void gicd_set_icfgr(unsigned long int_id, uint8_t cfg)
{
    80200fb0:	d10043ff 	sub	sp, sp, #0x10
    asm volatile (
    80200fb4:	d0000102 	adrp	x2, 80222000 <init_lock>
    80200fb8:	12001c21 	and	w1, w1, #0xff
    80200fbc:	52800023 	mov	w3, #0x1                   	// #1
    80200fc0:	91004044 	add	x4, x2, #0x10
    80200fc4:	885ffc85 	ldaxr	w5, [x4]
    80200fc8:	35ffffe5 	cbnz	w5, 80200fc4 <gicd_set_icfgr+0x14>
    80200fcc:	88057c83 	stxr	w5, w3, [x4]
    80200fd0:	35ffffa5 	cbnz	w5, 80200fc4 <gicd_set_icfgr+0x14>

    unsigned long reg_ind = (int_id * GIC_CONFIG_BITS) / (sizeof(uint32_t) * 8);
    unsigned long off = (int_id * GIC_CONFIG_BITS) % (sizeof(uint32_t) * 8);
    unsigned long mask = ((1U << GIC_CONFIG_BITS) - 1) << off;

    gicd->ICFGR[reg_ind] = (gicd->ICFGR[reg_ind] & ~mask) | ((cfg << off) & mask);
    80200fd4:	b0000083 	adrp	x3, 80211000 <__mprec_tens+0x180>
    80200fd8:	b9000fe5 	str	w5, [sp, #12]
    unsigned long reg_ind = (int_id * GIC_CONFIG_BITS) / (sizeof(uint32_t) * 8);
    80200fdc:	d344f802 	ubfx	x2, x0, #4, #59
    unsigned long off = (int_id * GIC_CONFIG_BITS) % (sizeof(uint32_t) * 8);
    80200fe0:	d37f0c00 	ubfiz	x0, x0, #1, #4
    gicd->ICFGR[reg_ind] = (gicd->ICFGR[reg_ind] & ~mask) | ((cfg << off) & mask);
    80200fe4:	f9401465 	ldr	x5, [x3, #40]
    unsigned long mask = ((1U << GIC_CONFIG_BITS) - 1) << off;
    80200fe8:	52800063 	mov	w3, #0x3                   	// #3
    80200fec:	1ac02063 	lsl	w3, w3, w0
    gicd->ICFGR[reg_ind] = (gicd->ICFGR[reg_ind] & ~mask) | ((cfg << off) & mask);
    80200ff0:	1ac02021 	lsl	w1, w1, w0
    80200ff4:	8b0208a0 	add	x0, x5, x2, lsl #2
    80200ff8:	b94c0002 	ldr	w2, [x0, #3072]
    80200ffc:	4a020021 	eor	w1, w1, w2
    80201000:	0a030021 	and	w1, w1, w3
    80201004:	4a020021 	eor	w1, w1, w2
    80201008:	b90c0001 	str	w1, [x0, #3072]
    asm volatile ("stlr wzr, %0\n\t" :: "Q"(*lock));
    8020100c:	889ffc9f 	stlr	wzr, [x4]

    spin_unlock(&gicd_lock);
}
    80201010:	910043ff 	add	sp, sp, #0x10
    80201014:	d65f03c0 	ret
    80201018:	d503201f 	nop
    8020101c:	d503201f 	nop

0000000080201020 <gicd_set_prio>:

void gicd_set_prio(unsigned long int_id, uint8_t prio)
{
    80201020:	d10043ff 	sub	sp, sp, #0x10
    unsigned long reg_ind = GIC_PRIO_REG(int_id);
    80201024:	d37df002 	lsl	x2, x0, #3
    asm volatile (
    80201028:	b0000103 	adrp	x3, 80222000 <init_lock>
{
    8020102c:	12001c21 	and	w1, w1, #0xff
    80201030:	52800024 	mov	w4, #0x1                   	// #1
    unsigned long off = GIC_PRIO_OFF(int_id);
    80201034:	d37d0400 	ubfiz	x0, x0, #3, #2
    80201038:	91004065 	add	x5, x3, #0x10
    8020103c:	885ffca6 	ldaxr	w6, [x5]
    80201040:	35ffffe6 	cbnz	w6, 8020103c <gicd_set_prio+0x1c>
    80201044:	88067ca4 	stxr	w6, w4, [x5]
    80201048:	35ffffa6 	cbnz	w6, 8020103c <gicd_set_prio+0x1c>
    unsigned long mask = BIT_MASK(off, GIC_PRIO_BITS);

    spin_lock(&gicd_lock);

    gicd->IPRIORITYR[reg_ind] =
        (gicd->IPRIORITYR[reg_ind] & ~mask) | ((prio << off) & mask);
    8020104c:	90000083 	adrp	x3, 80211000 <__mprec_tens+0x180>
    80201050:	b9000fe6 	str	w6, [sp, #12]
    unsigned long reg_ind = GIC_PRIO_REG(int_id);
    80201054:	d345fc42 	lsr	x2, x2, #5
    unsigned long mask = BIT_MASK(off, GIC_PRIO_BITS);
    80201058:	11002007 	add	w7, w0, #0x8
    8020105c:	f9401466 	ldr	x6, [x3, #40]
    80201060:	92800003 	mov	x3, #0xffffffffffffffff    	// #-1
    80201064:	aa0303e4 	mov	x4, x3
        (gicd->IPRIORITYR[reg_ind] & ~mask) | ((prio << off) & mask);
    80201068:	1ac02021 	lsl	w1, w1, w0
    unsigned long mask = BIT_MASK(off, GIC_PRIO_BITS);
    8020106c:	9ac72063 	lsl	x3, x3, x7
    80201070:	8b0208c2 	add	x2, x6, x2, lsl #2
    80201074:	9ac02084 	lsl	x4, x4, x0
    80201078:	8a230083 	bic	x3, x4, x3
        (gicd->IPRIORITYR[reg_ind] & ~mask) | ((prio << off) & mask);
    8020107c:	b9440040 	ldr	w0, [x2, #1024]
    80201080:	4a000021 	eor	w1, w1, w0
    80201084:	0a030021 	and	w1, w1, w3
    80201088:	4a000021 	eor	w1, w1, w0
    gicd->IPRIORITYR[reg_ind] =
    8020108c:	b9040041 	str	w1, [x2, #1024]
    asm volatile ("stlr wzr, %0\n\t" :: "Q"(*lock));
    80201090:	889ffcbf 	stlr	wzr, [x5]

    spin_unlock(&gicd_lock);
}
    80201094:	910043ff 	add	sp, sp, #0x10
    80201098:	d65f03c0 	ret
    8020109c:	d503201f 	nop

00000000802010a0 <gicd_get_state>:

enum int_state gicd_get_state(unsigned long int_id)
{
    unsigned long reg_ind = GIC_INT_REG(int_id);
    unsigned long mask = GIC_INT_MASK(int_id);
    802010a0:	52800022 	mov	w2, #0x1                   	// #1
{
    802010a4:	d10043ff 	sub	sp, sp, #0x10
    asm volatile (
    802010a8:	b0000101 	adrp	x1, 80222000 <init_lock>
    unsigned long mask = GIC_INT_MASK(int_id);
    802010ac:	1ac02043 	lsl	w3, w2, w0
    802010b0:	91004024 	add	x4, x1, #0x10
    802010b4:	885ffc85 	ldaxr	w5, [x4]
    802010b8:	35ffffe5 	cbnz	w5, 802010b4 <gicd_get_state+0x14>
    802010bc:	88057c82 	stxr	w5, w2, [x4]
    802010c0:	35ffffa5 	cbnz	w5, 802010b4 <gicd_get_state+0x14>

    spin_lock(&gicd_lock);

    enum int_state pend = (gicd->ISPENDR[reg_ind] & mask) ? PEND : 0;
    802010c4:	90000081 	adrp	x1, 80211000 <__mprec_tens+0x180>
    unsigned long reg_ind = GIC_INT_REG(int_id);
    802010c8:	d345fc00 	lsr	x0, x0, #5
    802010cc:	b9000fe5 	str	w5, [sp, #12]
    enum int_state pend = (gicd->ISPENDR[reg_ind] & mask) ? PEND : 0;
    802010d0:	f9401421 	ldr	x1, [x1, #40]
    802010d4:	8b000820 	add	x0, x1, x0, lsl #2
    802010d8:	b9420002 	ldr	w2, [x0, #512]
    enum int_state act = (gicd->ISACTIVER[reg_ind] & mask) ? ACT : 0;
    802010dc:	b9430000 	ldr	w0, [x0, #768]
    asm volatile ("stlr wzr, %0\n\t" :: "Q"(*lock));
    802010e0:	889ffc9f 	stlr	wzr, [x4]
    802010e4:	6a00007f 	tst	w3, w0
    802010e8:	1a9f07e1 	cset	w1, ne	// ne = any
    enum int_state pend = (gicd->ISPENDR[reg_ind] & mask) ? PEND : 0;
    802010ec:	6a02007f 	tst	w3, w2
    802010f0:	1a9f07e0 	cset	w0, ne	// ne = any

    spin_unlock(&gicd_lock);

    return pend | act;
}
    802010f4:	910043ff 	add	sp, sp, #0x10
    802010f8:	2a010400 	orr	w0, w0, w1, lsl #1
    802010fc:	d65f03c0 	ret

0000000080201100 <gicd_set_act>:
    asm volatile (
    80201100:	b0000102 	adrp	x2, 80222000 <init_lock>

    spin_unlock(&gicd_lock);
}

void gicd_set_act(unsigned long int_id, bool act)
{
    80201104:	d10043ff 	sub	sp, sp, #0x10
    80201108:	12001c21 	and	w1, w1, #0xff
    unsigned long reg_ind = GIC_INT_REG(int_id);
    8020110c:	d345fc04 	lsr	x4, x0, #5
    80201110:	91004046 	add	x6, x2, #0x10
    80201114:	52800023 	mov	w3, #0x1                   	// #1
    80201118:	885ffcc5 	ldaxr	w5, [x6]
    8020111c:	35ffffe5 	cbnz	w5, 80201118 <gicd_set_act+0x18>
    80201120:	88057cc3 	stxr	w5, w3, [x6]
    80201124:	35ffffa5 	cbnz	w5, 80201118 <gicd_set_act+0x18>

    spin_lock(&gicd_lock);

    if (act) {
        gicd->ISACTIVER[reg_ind] = GIC_INT_MASK(int_id);
    80201128:	1ac02063 	lsl	w3, w3, w0
    8020112c:	90000080 	adrp	x0, 80211000 <__mprec_tens+0x180>
    80201130:	b9000fe5 	str	w5, [sp, #12]
    80201134:	f9401400 	ldr	x0, [x0, #40]
    80201138:	8b040804 	add	x4, x0, x4, lsl #2
    if (act) {
    8020113c:	360000c1 	tbz	w1, #0, 80201154 <gicd_set_act+0x54>
    asm volatile ("stlr wzr, %0\n\t" :: "Q"(*lock));
    80201140:	91004042 	add	x2, x2, #0x10
        gicd->ISACTIVER[reg_ind] = GIC_INT_MASK(int_id);
    80201144:	b9030083 	str	w3, [x4, #768]
    80201148:	889ffc5f 	stlr	wzr, [x2]
    } else {
        gicd->ICACTIVER[reg_ind] = GIC_INT_MASK(int_id);
    }

    spin_unlock(&gicd_lock);
}
    8020114c:	910043ff 	add	sp, sp, #0x10
    80201150:	d65f03c0 	ret
    80201154:	91004042 	add	x2, x2, #0x10
        gicd->ICACTIVER[reg_ind] = GIC_INT_MASK(int_id);
    80201158:	b9038083 	str	w3, [x4, #896]
    8020115c:	889ffc5f 	stlr	wzr, [x2]
}
    80201160:	910043ff 	add	sp, sp, #0x10
    80201164:	d65f03c0 	ret
    80201168:	d503201f 	nop
    8020116c:	d503201f 	nop

0000000080201170 <gicd_set_state>:

void gicd_set_state(unsigned long int_id, enum int_state state)
{
    80201170:	a9be7bfd 	stp	x29, x30, [sp, #-32]!
    80201174:	2a0103e8 	mov	w8, w1
    80201178:	aa0003e7 	mov	x7, x0
    8020117c:	910003fd 	mov	x29, sp
    gicd_set_act(int_id, state & ACT);
    80201180:	d3410501 	ubfx	x1, x8, #1, #1
    80201184:	97ffffdf 	bl	80201100 <gicd_set_act>
    asm volatile (
    80201188:	b0000100 	adrp	x0, 80222000 <init_lock>
    gicd_set_pend(int_id, state & PEND);
    8020118c:	12000108 	and	w8, w8, #0x1
    80201190:	91004003 	add	x3, x0, #0x10
    80201194:	52800021 	mov	w1, #0x1                   	// #1
    80201198:	885ffc62 	ldaxr	w2, [x3]
    8020119c:	35ffffe2 	cbnz	w2, 80201198 <gicd_set_state+0x28>
    802011a0:	88027c61 	stxr	w2, w1, [x3]
    802011a4:	35ffffa2 	cbnz	w2, 80201198 <gicd_set_state+0x28>
    802011a8:	b9001fe2 	str	w2, [sp, #28]
    if (gic_is_sgi(int_id)) {
    802011ac:	f1003cff 	cmp	x7, #0xf
    802011b0:	540001e8 	b.hi	802011ec <gicd_set_state+0x7c>  // b.pmore
            gicd->SPENDSGIR[reg_ind] = (1U) << (off + get_cpuid());
    802011b4:	90000083 	adrp	x3, 80211000 <__mprec_tens+0x180>
        unsigned long reg_ind = GICD_SGI_REG(int_id);
    802011b8:	d342fce2 	lsr	x2, x7, #2
        unsigned long off = GICD_SGI_OFF(int_id);
    802011bc:	d37d04e7 	ubfiz	x7, x7, #3, #2
            gicd->SPENDSGIR[reg_ind] = (1U) << (off + get_cpuid());
    802011c0:	f9401463 	ldr	x3, [x3, #40]
        if (pend) {
    802011c4:	34000348 	cbz	w8, 8020122c <gicd_set_state+0xbc>
SYSREG_GEN_ACCESSORS(mpidr_el1);
    802011c8:	d53800a4 	mrs	x4, mpidr_el1
            gicd->SPENDSGIR[reg_ind] = (1U) << (off + get_cpuid());
    802011cc:	8b020862 	add	x2, x3, x2, lsl #2
    802011d0:	0b2400e3 	add	w3, w7, w4, uxtb
    asm volatile ("stlr wzr, %0\n\t" :: "Q"(*lock));
    802011d4:	91004000 	add	x0, x0, #0x10
    802011d8:	1ac32021 	lsl	w1, w1, w3
    802011dc:	b90f2041 	str	w1, [x2, #3872]
    802011e0:	889ffc1f 	stlr	wzr, [x0]
}
    802011e4:	a8c27bfd 	ldp	x29, x30, [sp], #32
    802011e8:	d65f03c0 	ret
            gicd->SPENDSGIR[reg_ind] = (1U) << (off + get_cpuid());
    802011ec:	90000082 	adrp	x2, 80211000 <__mprec_tens+0x180>
            gicd->ISPENDR[reg_ind] = GIC_INT_MASK(int_id);
    802011f0:	1ac72021 	lsl	w1, w1, w7
        unsigned long reg_ind = GIC_INT_REG(int_id);
    802011f4:	d345fce7 	lsr	x7, x7, #5
            gicd->SPENDSGIR[reg_ind] = (1U) << (off + get_cpuid());
    802011f8:	f9401442 	ldr	x2, [x2, #40]
            gicd->ISPENDR[reg_ind] = GIC_INT_MASK(int_id);
    802011fc:	8b070847 	add	x7, x2, x7, lsl #2
        if (pend) {
    80201200:	350000c8 	cbnz	w8, 80201218 <gicd_set_state+0xa8>
    80201204:	91004000 	add	x0, x0, #0x10
            gicd->ICPENDR[reg_ind] = GIC_INT_MASK(int_id);
    80201208:	b90280e1 	str	w1, [x7, #640]
    8020120c:	889ffc1f 	stlr	wzr, [x0]
}
    80201210:	a8c27bfd 	ldp	x29, x30, [sp], #32
    80201214:	d65f03c0 	ret
    80201218:	91004000 	add	x0, x0, #0x10
            gicd->ISPENDR[reg_ind] = GIC_INT_MASK(int_id);
    8020121c:	b90200e1 	str	w1, [x7, #512]
    80201220:	889ffc1f 	stlr	wzr, [x0]
}
    80201224:	a8c27bfd 	ldp	x29, x30, [sp], #32
    80201228:	d65f03c0 	ret
            gicd->CPENDSGIR[reg_ind] = BIT_MASK(off, 8);
    8020122c:	8b020862 	add	x2, x3, x2, lsl #2
    80201230:	110020e4 	add	w4, w7, #0x8
    80201234:	d2800023 	mov	x3, #0x1                   	// #1
    80201238:	92800001 	mov	x1, #0xffffffffffffffff    	// #-1
    8020123c:	9ac72063 	lsl	x3, x3, x7
    80201240:	4b0303e3 	neg	w3, w3
    80201244:	9ac42021 	lsl	x1, x1, x4
    80201248:	91004000 	add	x0, x0, #0x10
    8020124c:	0a210061 	bic	w1, w3, w1
    80201250:	b90f1041 	str	w1, [x2, #3856]
    80201254:	889ffc1f 	stlr	wzr, [x0]
}
    80201258:	a8c27bfd 	ldp	x29, x30, [sp], #32
    8020125c:	d65f03c0 	ret

0000000080201260 <gicd_set_trgt>:

void gicd_set_trgt(unsigned long int_id, uint8_t trgt)
{
    80201260:	d10043ff 	sub	sp, sp, #0x10
    unsigned long reg_ind = GIC_TARGET_REG(int_id);
    80201264:	d37df004 	lsl	x4, x0, #3
    asm volatile (
    80201268:	b0000102 	adrp	x2, 80222000 <init_lock>
{
    8020126c:	12001c21 	and	w1, w1, #0xff
    80201270:	52800023 	mov	w3, #0x1                   	// #1
    unsigned long off = GIC_TARGET_OFF(int_id);
    80201274:	d37d0400 	ubfiz	x0, x0, #3, #2
    80201278:	91004046 	add	x6, x2, #0x10
    8020127c:	885ffcc5 	ldaxr	w5, [x6]
    80201280:	35ffffe5 	cbnz	w5, 8020127c <gicd_set_trgt+0x1c>
    80201284:	88057cc3 	stxr	w5, w3, [x6]
    80201288:	35ffffa5 	cbnz	w5, 8020127c <gicd_set_trgt+0x1c>
    uint32_t mask = BIT_MASK(off, GIC_TARGET_BITS);

    spin_lock(&gicd_lock);

    gicd->ITARGETSR[reg_ind] =
        (gicd->ITARGETSR[reg_ind] & ~mask) | ((trgt << off) & mask);
    8020128c:	90000083 	adrp	x3, 80211000 <__mprec_tens+0x180>
    80201290:	b9000fe5 	str	w5, [sp, #12]
    unsigned long reg_ind = GIC_TARGET_REG(int_id);
    80201294:	d345fc84 	lsr	x4, x4, #5
    uint32_t mask = BIT_MASK(off, GIC_TARGET_BITS);
    80201298:	d2800022 	mov	x2, #0x1                   	// #1
    8020129c:	f9401465 	ldr	x5, [x3, #40]
    802012a0:	9ac02042 	lsl	x2, x2, x0
        (gicd->ITARGETSR[reg_ind] & ~mask) | ((trgt << off) & mask);
    802012a4:	1ac02021 	lsl	w1, w1, w0
    uint32_t mask = BIT_MASK(off, GIC_TARGET_BITS);
    802012a8:	11002000 	add	w0, w0, #0x8
    802012ac:	4b0203e3 	neg	w3, w2
    802012b0:	92800002 	mov	x2, #0xffffffffffffffff    	// #-1
    802012b4:	8b0408a4 	add	x4, x5, x4, lsl #2
    802012b8:	9ac02040 	lsl	x0, x2, x0
        (gicd->ITARGETSR[reg_ind] & ~mask) | ((trgt << off) & mask);
    802012bc:	b9480085 	ldr	w5, [x4, #2048]
    802012c0:	4a050021 	eor	w1, w1, w5
    802012c4:	0a010062 	and	w2, w3, w1
    802012c8:	0a200040 	bic	w0, w2, w0
    802012cc:	4a050000 	eor	w0, w0, w5
    gicd->ITARGETSR[reg_ind] =
    802012d0:	b9080080 	str	w0, [x4, #2048]
    asm volatile ("stlr wzr, %0\n\t" :: "Q"(*lock));
    802012d4:	889ffcdf 	stlr	wzr, [x6]

    spin_unlock(&gicd_lock);
}
    802012d8:	910043ff 	add	sp, sp, #0x10
    802012dc:	d65f03c0 	ret

00000000802012e0 <gicd_set_route>:

void gicd_set_route(unsigned long int_id, unsigned long trgt)
{
    if (gic_is_priv(int_id)) return;
    802012e0:	f1007c1f 	cmp	x0, #0x1f
    802012e4:	54000129 	b.ls	80201308 <gicd_set_route+0x28>  // b.plast
     * syndrome register. Bao has no support for its emulation. Therefore 
     * we perform the 64-bit access explicitly as two 32-bit stores.
     */

    uint64_t _trgt = trgt;
    volatile uint32_t *irouter = (uint32_t*) &gicd->IROUTER[int_id];
    802012e8:	90000082 	adrp	x2, 80211000 <__mprec_tens+0x180>
    802012ec:	91300000 	add	x0, x0, #0xc00
    irouter[0] = _trgt;
    irouter[1] = (_trgt >> 32);
    802012f0:	d360fc24 	lsr	x4, x1, #32
    volatile uint32_t *irouter = (uint32_t*) &gicd->IROUTER[int_id];
    802012f4:	f9401442 	ldr	x2, [x2, #40]
    802012f8:	d37df000 	lsl	x0, x0, #3
    802012fc:	8b000043 	add	x3, x2, x0
    irouter[0] = _trgt;
    80201300:	b8206841 	str	w1, [x2, x0]
    irouter[1] = (_trgt >> 32);
    80201304:	b9000464 	str	w4, [x3, #4]
}
    80201308:	d65f03c0 	ret
    8020130c:	d503201f 	nop

0000000080201310 <gicd_set_enable>:

void gicd_set_enable(unsigned long int_id, bool en)
{
    unsigned long bit = GIC_INT_MASK(int_id);
    80201310:	52800023 	mov	w3, #0x1                   	// #1
    asm volatile (
    80201314:	b0000102 	adrp	x2, 80222000 <init_lock>
    80201318:	1ac02064 	lsl	w4, w3, w0
{
    8020131c:	d10043ff 	sub	sp, sp, #0x10
    80201320:	12001c21 	and	w1, w1, #0xff

    unsigned long reg_ind = GIC_INT_REG(int_id);
    80201324:	d345fc00 	lsr	x0, x0, #5
    80201328:	91004046 	add	x6, x2, #0x10
    8020132c:	885ffcc5 	ldaxr	w5, [x6]
    80201330:	35ffffe5 	cbnz	w5, 8020132c <gicd_set_enable+0x1c>
    80201334:	88057cc3 	stxr	w5, w3, [x6]
    80201338:	35ffffa5 	cbnz	w5, 8020132c <gicd_set_enable+0x1c>
    8020133c:	b9000fe5 	str	w5, [sp, #12]
    spin_lock(&gicd_lock);
    if (en)
    80201340:	36000121 	tbz	w1, #0, 80201364 <gicd_set_enable+0x54>
        gicd->ISENABLER[reg_ind] = bit;
    80201344:	90000081 	adrp	x1, 80211000 <__mprec_tens+0x180>
    asm volatile ("stlr wzr, %0\n\t" :: "Q"(*lock));
    80201348:	91004042 	add	x2, x2, #0x10
    8020134c:	f9401421 	ldr	x1, [x1, #40]
    80201350:	8b000820 	add	x0, x1, x0, lsl #2
    80201354:	b9010004 	str	w4, [x0, #256]
    80201358:	889ffc5f 	stlr	wzr, [x2]
    else
        gicd->ICENABLER[reg_ind] = bit;
    spin_unlock(&gicd_lock);
}
    8020135c:	910043ff 	add	sp, sp, #0x10
    80201360:	d65f03c0 	ret
        gicd->ICENABLER[reg_ind] = bit;
    80201364:	90000081 	adrp	x1, 80211000 <__mprec_tens+0x180>
    80201368:	91004042 	add	x2, x2, #0x10
    8020136c:	f9401421 	ldr	x1, [x1, #40]
    80201370:	8b000820 	add	x0, x1, x0, lsl #2
    80201374:	b9018004 	str	w4, [x0, #384]
    80201378:	889ffc5f 	stlr	wzr, [x2]
}
    8020137c:	910043ff 	add	sp, sp, #0x10
    80201380:	d65f03c0 	ret

0000000080201384 <gicr_set_prio>:
    asm volatile (
    80201384:	b0000103 	adrp	x3, 80222000 <init_lock>
    80201388:	91004063 	add	x3, x3, #0x10

void gicr_set_prio(unsigned long int_id, uint8_t prio, uint32_t gicr_id)
{
    8020138c:	d10043ff 	sub	sp, sp, #0x10
    unsigned long reg_ind = GIC_PRIO_REG(int_id);
    80201390:	d37df004 	lsl	x4, x0, #3
{
    80201394:	12001c21 	and	w1, w1, #0xff
    unsigned long off = GIC_PRIO_OFF(int_id);
    80201398:	d37d0400 	ubfiz	x0, x0, #3, #2
    8020139c:	52800025 	mov	w5, #0x1                   	// #1
    802013a0:	91001067 	add	x7, x3, #0x4
    802013a4:	885ffce6 	ldaxr	w6, [x7]
    802013a8:	35ffffe6 	cbnz	w6, 802013a4 <gicr_set_prio+0x20>
    802013ac:	88067ce5 	stxr	w6, w5, [x7]
    802013b0:	35ffffa6 	cbnz	w6, 802013a4 <gicr_set_prio+0x20>
    unsigned long reg_ind = GIC_PRIO_REG(int_id);
    802013b4:	d345fc84 	lsr	x4, x4, #5
    unsigned long mask = BIT_MASK(off, GIC_PRIO_BITS);

    spin_lock(&gicr_lock);

    gicr[gicr_id].IPRIORITYR[reg_ind] =
        (gicr[gicr_id].IPRIORITYR[reg_ind] & ~mask) | ((prio << off) & mask);
    802013b8:	90000085 	adrp	x5, 80211000 <__mprec_tens+0x180>
    802013bc:	b9000fe6 	str	w6, [sp, #12]
    gicr[gicr_id].IPRIORITYR[reg_ind] =
    802013c0:	52a00048 	mov	w8, #0x20000               	// #131072
    802013c4:	d37ef486 	lsl	x6, x4, #2
    unsigned long mask = BIT_MASK(off, GIC_PRIO_BITS);
    802013c8:	11002007 	add	w7, w0, #0x8
    802013cc:	f94018a4 	ldr	x4, [x5, #48]
    802013d0:	92800005 	mov	x5, #0xffffffffffffffff    	// #-1
    802013d4:	9ba81842 	umaddl	x2, w2, w8, x6
    802013d8:	aa0503e6 	mov	x6, x5
        (gicr[gicr_id].IPRIORITYR[reg_ind] & ~mask) | ((prio << off) & mask);
    802013dc:	1ac02021 	lsl	w1, w1, w0
    802013e0:	8b020082 	add	x2, x4, x2
    unsigned long mask = BIT_MASK(off, GIC_PRIO_BITS);
    802013e4:	9ac020c6 	lsl	x6, x6, x0
        (gicr[gicr_id].IPRIORITYR[reg_ind] & ~mask) | ((prio << off) & mask);
    802013e8:	91404042 	add	x2, x2, #0x10, lsl #12
    unsigned long mask = BIT_MASK(off, GIC_PRIO_BITS);
    802013ec:	9ac720a5 	lsl	x5, x5, x7
    802013f0:	8a2500c5 	bic	x5, x6, x5
        (gicr[gicr_id].IPRIORITYR[reg_ind] & ~mask) | ((prio << off) & mask);
    802013f4:	b9440040 	ldr	w0, [x2, #1024]
    802013f8:	4a000021 	eor	w1, w1, w0
    802013fc:	0a050021 	and	w1, w1, w5
    80201400:	4a000021 	eor	w1, w1, w0
    asm volatile ("stlr wzr, %0\n\t" :: "Q"(*lock));
    80201404:	91001060 	add	x0, x3, #0x4
    gicr[gicr_id].IPRIORITYR[reg_ind] =
    80201408:	b9040041 	str	w1, [x2, #1024]
    8020140c:	889ffc1f 	stlr	wzr, [x0]

    spin_unlock(&gicr_lock);
}
    80201410:	910043ff 	add	sp, sp, #0x10
    80201414:	d65f03c0 	ret
    80201418:	d503201f 	nop
    8020141c:	d503201f 	nop

0000000080201420 <gicr_get_prio>:
    asm volatile (
    80201420:	b0000102 	adrp	x2, 80222000 <init_lock>
    80201424:	91004042 	add	x2, x2, #0x10

unsigned long gicr_get_prio(unsigned long int_id, uint32_t gicr_id)
{
    80201428:	d10043ff 	sub	sp, sp, #0x10
    unsigned long reg_ind = GIC_PRIO_REG(int_id);
    8020142c:	d37df003 	lsl	x3, x0, #3
    80201430:	52800024 	mov	w4, #0x1                   	// #1
    80201434:	d342f000 	ubfx	x0, x0, #2, #59
    80201438:	91001046 	add	x6, x2, #0x4
    8020143c:	885ffcc5 	ldaxr	w5, [x6]
    80201440:	35ffffe5 	cbnz	w5, 8020143c <gicr_get_prio+0x1c>
    80201444:	88057cc4 	stxr	w5, w4, [x6]
    80201448:	35ffffa5 	cbnz	w5, 8020143c <gicr_get_prio+0x1c>
    unsigned long off = GIC_PRIO_OFF(int_id);

    spin_lock(&gicr_lock);

    unsigned long prio =
        gicr[gicr_id].IPRIORITYR[reg_ind] >> off & BIT_MASK(off, GIC_PRIO_BITS);
    8020144c:	90000084 	adrp	x4, 80211000 <__mprec_tens+0x180>
    80201450:	d36f7c21 	ubfiz	x1, x1, #17, #32
    80201454:	91401000 	add	x0, x0, #0x4, lsl #12
    80201458:	b9000fe5 	str	w5, [sp, #12]
    8020145c:	f9401884 	ldr	x4, [x4, #48]
    unsigned long off = GIC_PRIO_OFF(int_id);
    80201460:	927d0463 	and	x3, x3, #0x18
        gicr[gicr_id].IPRIORITYR[reg_ind] >> off & BIT_MASK(off, GIC_PRIO_BITS);
    80201464:	8b010081 	add	x1, x4, x1
    80201468:	8b000820 	add	x0, x1, x0, lsl #2
    8020146c:	b9440000 	ldr	w0, [x0, #1024]
    asm volatile ("stlr wzr, %0\n\t" :: "Q"(*lock));
    80201470:	889ffcdf 	stlr	wzr, [x6]
    80201474:	92800001 	mov	x1, #0xffffffffffffffff    	// #-1
    80201478:	1ac32402 	lsr	w2, w0, w3
    8020147c:	11002064 	add	w4, w3, #0x8
    80201480:	aa0103e0 	mov	x0, x1
    80201484:	9ac32021 	lsl	x1, x1, x3
    unsigned long prio =
    80201488:	8a020021 	and	x1, x1, x2
        gicr[gicr_id].IPRIORITYR[reg_ind] >> off & BIT_MASK(off, GIC_PRIO_BITS);
    8020148c:	9ac42000 	lsl	x0, x0, x4

    spin_unlock(&gicr_lock);

    return prio;
}
    80201490:	8a200020 	bic	x0, x1, x0
    80201494:	910043ff 	add	sp, sp, #0x10
    80201498:	d65f03c0 	ret
    8020149c:	d503201f 	nop

00000000802014a0 <gicr_set_icfgr>:
    asm volatile (
    802014a0:	b0000103 	adrp	x3, 80222000 <init_lock>
    802014a4:	91004063 	add	x3, x3, #0x10

void gicr_set_icfgr(unsigned long int_id, uint8_t cfg, uint32_t gicr_id)
{
    802014a8:	d10043ff 	sub	sp, sp, #0x10
    802014ac:	12001c21 	and	w1, w1, #0xff
    802014b0:	91001065 	add	x5, x3, #0x4
    802014b4:	52800024 	mov	w4, #0x1                   	// #1
    802014b8:	885ffca6 	ldaxr	w6, [x5]
    802014bc:	35ffffe6 	cbnz	w6, 802014b8 <gicr_set_icfgr+0x18>
    802014c0:	88067ca4 	stxr	w6, w4, [x5]
    802014c4:	35ffffa6 	cbnz	w6, 802014b8 <gicr_set_icfgr+0x18>
    spin_lock(&gicr_lock);

    unsigned long reg_ind = (int_id * GIC_CONFIG_BITS) / (sizeof(uint32_t) * 8);
    unsigned long off = (int_id * GIC_CONFIG_BITS) % (sizeof(uint32_t) * 8);
    802014c8:	d37f0c05 	ubfiz	x5, x0, #1, #4
    unsigned long reg_ind = (int_id * GIC_CONFIG_BITS) / (sizeof(uint32_t) * 8);
    802014cc:	d37ff800 	lsl	x0, x0, #1
    unsigned long mask = ((1U << GIC_CONFIG_BITS) - 1) << off;

    if (reg_ind == 0) {
    802014d0:	f1007c1f 	cmp	x0, #0x1f
        gicr[gicr_id].ICFGR0 =
            (gicr[gicr_id].ICFGR0 & ~mask) | ((cfg << off) & mask);
    802014d4:	90000080 	adrp	x0, 80211000 <__mprec_tens+0x180>
    802014d8:	d36f7c42 	ubfiz	x2, x2, #17, #32
    802014dc:	b9000fe6 	str	w6, [sp, #12]
    802014e0:	f9401800 	ldr	x0, [x0, #48]
    unsigned long mask = ((1U << GIC_CONFIG_BITS) - 1) << off;
    802014e4:	52800064 	mov	w4, #0x3                   	// #3
            (gicr[gicr_id].ICFGR0 & ~mask) | ((cfg << off) & mask);
    802014e8:	1ac52021 	lsl	w1, w1, w5
    802014ec:	8b020000 	add	x0, x0, x2
    unsigned long mask = ((1U << GIC_CONFIG_BITS) - 1) << off;
    802014f0:	1ac52084 	lsl	w4, w4, w5
            (gicr[gicr_id].ICFGR0 & ~mask) | ((cfg << off) & mask);
    802014f4:	91404000 	add	x0, x0, #0x10, lsl #12
    if (reg_ind == 0) {
    802014f8:	54000148 	b.hi	80201520 <gicr_set_icfgr+0x80>  // b.pmore
            (gicr[gicr_id].ICFGR0 & ~mask) | ((cfg << off) & mask);
    802014fc:	b94c0002 	ldr	w2, [x0, #3072]
    80201500:	4a010041 	eor	w1, w2, w1
    80201504:	0a040021 	and	w1, w1, w4
    80201508:	4a020021 	eor	w1, w1, w2
        gicr[gicr_id].ICFGR0 =
    8020150c:	b90c0001 	str	w1, [x0, #3072]
    asm volatile ("stlr wzr, %0\n\t" :: "Q"(*lock));
    80201510:	91001060 	add	x0, x3, #0x4
    80201514:	889ffc1f 	stlr	wzr, [x0]
        gicr[gicr_id].ICFGR1 =
            (gicr[gicr_id].ICFGR1 & ~mask) | ((cfg << off) & mask);
    }

    spin_unlock(&gicr_lock);
}
    80201518:	910043ff 	add	sp, sp, #0x10
    8020151c:	d65f03c0 	ret
            (gicr[gicr_id].ICFGR1 & ~mask) | ((cfg << off) & mask);
    80201520:	b94c0402 	ldr	w2, [x0, #3076]
    80201524:	4a010041 	eor	w1, w2, w1
    80201528:	0a040021 	and	w1, w1, w4
    8020152c:	4a020021 	eor	w1, w1, w2
        gicr[gicr_id].ICFGR1 =
    80201530:	b90c0401 	str	w1, [x0, #3076]
    80201534:	91001060 	add	x0, x3, #0x4
    80201538:	889ffc1f 	stlr	wzr, [x0]
}
    8020153c:	910043ff 	add	sp, sp, #0x10
    80201540:	d65f03c0 	ret

0000000080201544 <gicr_get_state>:

enum int_state gicr_get_state(unsigned long int_id, uint32_t gicr_id)
{
    unsigned long mask = GIC_INT_MASK(int_id);
    80201544:	52800023 	mov	w3, #0x1                   	// #1
    asm volatile (
    80201548:	b0000102 	adrp	x2, 80222000 <init_lock>
    8020154c:	91004042 	add	x2, x2, #0x10
{
    80201550:	d10043ff 	sub	sp, sp, #0x10
    unsigned long mask = GIC_INT_MASK(int_id);
    80201554:	1ac02064 	lsl	w4, w3, w0
    80201558:	91001040 	add	x0, x2, #0x4
    8020155c:	885ffc05 	ldaxr	w5, [x0]
    80201560:	35ffffe5 	cbnz	w5, 8020155c <gicr_get_state+0x18>
    80201564:	88057c03 	stxr	w5, w3, [x0]
    80201568:	35ffffa5 	cbnz	w5, 8020155c <gicr_get_state+0x18>

    spin_lock(&gicr_lock);

    enum int_state pend = (gicr[gicr_id].ISPENDR0 & mask) ? PEND : 0;
    8020156c:	90000080 	adrp	x0, 80211000 <__mprec_tens+0x180>
    80201570:	d36f7c23 	ubfiz	x3, x1, #17, #32
    80201574:	b9000fe5 	str	w5, [sp, #12]
    asm volatile ("stlr wzr, %0\n\t" :: "Q"(*lock));
    80201578:	91001042 	add	x2, x2, #0x4
    8020157c:	f9401801 	ldr	x1, [x0, #48]
    80201580:	8b030021 	add	x1, x1, x3
    80201584:	91404021 	add	x1, x1, #0x10, lsl #12
    80201588:	b9420020 	ldr	w0, [x1, #512]
    enum int_state act = (gicr[gicr_id].ISACTIVER0 & mask) ? ACT : 0;
    8020158c:	b9430021 	ldr	w1, [x1, #768]
    80201590:	889ffc5f 	stlr	wzr, [x2]
    80201594:	6a01009f 	tst	w4, w1
    80201598:	1a9f07e1 	cset	w1, ne	// ne = any
    enum int_state pend = (gicr[gicr_id].ISPENDR0 & mask) ? PEND : 0;
    8020159c:	6a00009f 	tst	w4, w0
    802015a0:	1a9f07e0 	cset	w0, ne	// ne = any

    spin_unlock(&gicr_lock);

    return pend | act;
}
    802015a4:	910043ff 	add	sp, sp, #0x10
    802015a8:	2a010400 	orr	w0, w0, w1, lsl #1
    802015ac:	d65f03c0 	ret

00000000802015b0 <gicr_set_act>:
    asm volatile (
    802015b0:	b0000103 	adrp	x3, 80222000 <init_lock>
    802015b4:	91004063 	add	x3, x3, #0x10
    }
    spin_unlock(&gicr_lock);
}

void gicr_set_act(unsigned long int_id, bool act, uint32_t gicr_id)
{
    802015b8:	d10043ff 	sub	sp, sp, #0x10
    802015bc:	12001c21 	and	w1, w1, #0xff
    802015c0:	91001066 	add	x6, x3, #0x4
    802015c4:	52800024 	mov	w4, #0x1                   	// #1
    802015c8:	885ffcc5 	ldaxr	w5, [x6]
    802015cc:	35ffffe5 	cbnz	w5, 802015c8 <gicr_set_act+0x18>
    802015d0:	88057cc4 	stxr	w5, w4, [x6]
    802015d4:	35ffffa5 	cbnz	w5, 802015c8 <gicr_set_act+0x18>
    spin_lock(&gicr_lock);

    if (act) {
        gicr[gicr_id].ISACTIVER0 = GIC_INT_MASK(int_id);
    802015d8:	1ac02084 	lsl	w4, w4, w0
    802015dc:	90000080 	adrp	x0, 80211000 <__mprec_tens+0x180>
    802015e0:	d36f7c42 	ubfiz	x2, x2, #17, #32
    802015e4:	b9000fe5 	str	w5, [sp, #12]
    802015e8:	f9401800 	ldr	x0, [x0, #48]
    802015ec:	8b020000 	add	x0, x0, x2
    802015f0:	91404000 	add	x0, x0, #0x10, lsl #12
    if (act) {
    802015f4:	360000c1 	tbz	w1, #0, 8020160c <gicr_set_act+0x5c>
        gicr[gicr_id].ISACTIVER0 = GIC_INT_MASK(int_id);
    802015f8:	b9030004 	str	w4, [x0, #768]
    asm volatile ("stlr wzr, %0\n\t" :: "Q"(*lock));
    802015fc:	91001060 	add	x0, x3, #0x4
    80201600:	889ffc1f 	stlr	wzr, [x0]
    } else {
        gicr[gicr_id].ICACTIVER0 = GIC_INT_MASK(int_id);
    }

    spin_unlock(&gicr_lock);
}
    80201604:	910043ff 	add	sp, sp, #0x10
    80201608:	d65f03c0 	ret
        gicr[gicr_id].ICACTIVER0 = GIC_INT_MASK(int_id);
    8020160c:	b9038004 	str	w4, [x0, #896]
    80201610:	91001060 	add	x0, x3, #0x4
    80201614:	889ffc1f 	stlr	wzr, [x0]
}
    80201618:	910043ff 	add	sp, sp, #0x10
    8020161c:	d65f03c0 	ret

0000000080201620 <gicr_set_state>:

void gicr_set_state(unsigned long int_id, enum int_state state, uint32_t gicr_id)
{
    80201620:	a9be7bfd 	stp	x29, x30, [sp, #-32]!
    80201624:	2a0103e8 	mov	w8, w1
    80201628:	aa0003e9 	mov	x9, x0
    8020162c:	910003fd 	mov	x29, sp
    gicr_set_act(int_id, state & ACT, gicr_id);
    80201630:	d3410501 	ubfx	x1, x8, #1, #1
{
    80201634:	2a0203e7 	mov	w7, w2
    gicr_set_act(int_id, state & ACT, gicr_id);
    80201638:	97ffffde 	bl	802015b0 <gicr_set_act>
    asm volatile (
    8020163c:	b0000103 	adrp	x3, 80222000 <init_lock>
    80201640:	91004063 	add	x3, x3, #0x10
    80201644:	91001061 	add	x1, x3, #0x4
    80201648:	52800024 	mov	w4, #0x1                   	// #1
    8020164c:	885ffc20 	ldaxr	w0, [x1]
    80201650:	35ffffe0 	cbnz	w0, 8020164c <gicr_set_state+0x2c>
    80201654:	88007c24 	stxr	w0, w4, [x1]
    80201658:	35ffffa0 	cbnz	w0, 8020164c <gicr_set_state+0x2c>
    8020165c:	b9001fe0 	str	w0, [sp, #28]
        gicr[gicr_id].ISPENDR0 = (1U) << (int_id);
    80201660:	90000080 	adrp	x0, 80211000 <__mprec_tens+0x180>
    80201664:	d36f7ce7 	ubfiz	x7, x7, #17, #32
    80201668:	1ac92084 	lsl	w4, w4, w9
    8020166c:	f9401800 	ldr	x0, [x0, #48]
    80201670:	8b070000 	add	x0, x0, x7
    80201674:	91404000 	add	x0, x0, #0x10, lsl #12
    if (pend) {
    80201678:	360000c8 	tbz	w8, #0, 80201690 <gicr_set_state+0x70>
        gicr[gicr_id].ISPENDR0 = (1U) << (int_id);
    8020167c:	b9020004 	str	w4, [x0, #512]
    asm volatile ("stlr wzr, %0\n\t" :: "Q"(*lock));
    80201680:	91001060 	add	x0, x3, #0x4
    80201684:	889ffc1f 	stlr	wzr, [x0]
    gicr_set_pend(int_id, state & PEND, gicr_id);
}
    80201688:	a8c27bfd 	ldp	x29, x30, [sp], #32
    8020168c:	d65f03c0 	ret
        gicr[gicr_id].ICPENDR0 = (1U) << (int_id);
    80201690:	b9028004 	str	w4, [x0, #640]
    80201694:	91001060 	add	x0, x3, #0x4
    80201698:	889ffc1f 	stlr	wzr, [x0]
}
    8020169c:	a8c27bfd 	ldp	x29, x30, [sp], #32
    802016a0:	d65f03c0 	ret

00000000802016a4 <gicr_set_trgt>:
    asm volatile (
    802016a4:	b0000100 	adrp	x0, 80222000 <init_lock>
    802016a8:	91004000 	add	x0, x0, #0x10

void gicr_set_trgt(unsigned long int_id, uint8_t trgt, uint32_t gicr_id)
{
    802016ac:	d10043ff 	sub	sp, sp, #0x10
    802016b0:	52800021 	mov	w1, #0x1                   	// #1
    802016b4:	91001003 	add	x3, x0, #0x4
    802016b8:	885ffc62 	ldaxr	w2, [x3]
    802016bc:	35ffffe2 	cbnz	w2, 802016b8 <gicr_set_trgt+0x14>
    802016c0:	88027c61 	stxr	w2, w1, [x3]
    802016c4:	35ffffa2 	cbnz	w2, 802016b8 <gicr_set_trgt+0x14>
    802016c8:	b9000fe2 	str	w2, [sp, #12]
    asm volatile ("stlr wzr, %0\n\t" :: "Q"(*lock));
    802016cc:	889ffc7f 	stlr	wzr, [x3]
    spin_lock(&gicr_lock);

    spin_unlock(&gicr_lock);
}
    802016d0:	910043ff 	add	sp, sp, #0x10
    802016d4:	d65f03c0 	ret
    802016d8:	d503201f 	nop
    802016dc:	d503201f 	nop

00000000802016e0 <gicr_set_route>:

void gicr_set_route(unsigned long int_id, uint8_t trgt, uint32_t gicr_id)
    802016e0:	b0000100 	adrp	x0, 80222000 <init_lock>
    802016e4:	91004000 	add	x0, x0, #0x10
    802016e8:	d10043ff 	sub	sp, sp, #0x10
    802016ec:	52800021 	mov	w1, #0x1                   	// #1
    802016f0:	91001003 	add	x3, x0, #0x4
    802016f4:	885ffc62 	ldaxr	w2, [x3]
    802016f8:	35ffffe2 	cbnz	w2, 802016f4 <gicr_set_route+0x14>
    802016fc:	88027c61 	stxr	w2, w1, [x3]
    80201700:	35ffffa2 	cbnz	w2, 802016f4 <gicr_set_route+0x14>
    80201704:	b9000fe2 	str	w2, [sp, #12]
    80201708:	889ffc7f 	stlr	wzr, [x3]
    8020170c:	910043ff 	add	sp, sp, #0x10
    80201710:	d65f03c0 	ret

0000000080201714 <gicr_set_enable>:
    gicr_set_trgt(int_id, trgt, gicr_id);
}

void gicr_set_enable(unsigned long int_id, bool en, uint32_t gicr_id)
{
    unsigned long bit = GIC_INT_MASK(int_id);
    80201714:	52800024 	mov	w4, #0x1                   	// #1
    asm volatile (
    80201718:	b0000103 	adrp	x3, 80222000 <init_lock>
    8020171c:	91004063 	add	x3, x3, #0x10
{
    80201720:	d10043ff 	sub	sp, sp, #0x10
    80201724:	12001c21 	and	w1, w1, #0xff
    80201728:	91001066 	add	x6, x3, #0x4
    unsigned long bit = GIC_INT_MASK(int_id);
    8020172c:	1ac02080 	lsl	w0, w4, w0
    80201730:	885ffcc5 	ldaxr	w5, [x6]
    80201734:	35ffffe5 	cbnz	w5, 80201730 <gicr_set_enable+0x1c>
    80201738:	88057cc4 	stxr	w5, w4, [x6]
    8020173c:	35ffffa5 	cbnz	w5, 80201730 <gicr_set_enable+0x1c>
    80201740:	b9000fe5 	str	w5, [sp, #12]

    spin_lock(&gicr_lock);
    if (en)
        gicr[gicr_id].ISENABLER0 = bit;
    80201744:	d36f7c42 	ubfiz	x2, x2, #17, #32
    if (en)
    80201748:	36000141 	tbz	w1, #0, 80201770 <gicr_set_enable+0x5c>
        gicr[gicr_id].ISENABLER0 = bit;
    8020174c:	90000081 	adrp	x1, 80211000 <__mprec_tens+0x180>
    80201750:	f9401821 	ldr	x1, [x1, #48]
    80201754:	8b020021 	add	x1, x1, x2
    80201758:	91404021 	add	x1, x1, #0x10, lsl #12
    8020175c:	b9010020 	str	w0, [x1, #256]
    asm volatile ("stlr wzr, %0\n\t" :: "Q"(*lock));
    80201760:	91001060 	add	x0, x3, #0x4
    80201764:	889ffc1f 	stlr	wzr, [x0]
    else
        gicr[gicr_id].ICENABLER0 = bit;
    spin_unlock(&gicr_lock);
}
    80201768:	910043ff 	add	sp, sp, #0x10
    8020176c:	d65f03c0 	ret
        gicr[gicr_id].ICENABLER0 = bit;
    80201770:	90000081 	adrp	x1, 80211000 <__mprec_tens+0x180>
    80201774:	f9401821 	ldr	x1, [x1, #48]
    80201778:	8b020021 	add	x1, x1, x2
    8020177c:	91404021 	add	x1, x1, #0x10, lsl #12
    80201780:	b9018020 	str	w0, [x1, #384]
    80201784:	91001060 	add	x0, x3, #0x4
    80201788:	889ffc1f 	stlr	wzr, [x0]
}
    8020178c:	910043ff 	add	sp, sp, #0x10
    80201790:	d65f03c0 	ret

0000000080201794 <gic_send_sgi>:
    else return false;
}

void gic_send_sgi(unsigned long cpu_target, unsigned long sgi_num)
{
    if (sgi_num >= GIC_MAX_SGIS) return;
    80201794:	f1003c3f 	cmp	x1, #0xf
    80201798:	540000a8 	b.hi	802017ac <gic_send_sgi+0x18>  // b.pmore
    
    unsigned long sgi = (1UL << (cpu_target & 0xffull)) | (sgi_num << 24);
    8020179c:	d2800022 	mov	x2, #0x1                   	// #1
    802017a0:	9ac02040 	lsl	x0, x2, x0
    802017a4:	aa016001 	orr	x1, x0, x1, lsl #24
SYSREG_GEN_ACCESSORS(icc_sgi1r_el1);
    802017a8:	d518cba1 	msr	icc_sgi1r_el1, x1
    sysreg_icc_sgi1r_el1_write(sgi); 
}
    802017ac:	d65f03c0 	ret

00000000802017b0 <gic_set_prio>:
    if (int_id > 32 && int_id < 1025) return true;
    802017b0:	d1008402 	sub	x2, x0, #0x21

void gic_set_prio(unsigned long int_id, uint8_t prio)
{
    802017b4:	12001c21 	and	w1, w1, #0xff
    if (int_id > 32 && int_id < 1025) return true;
    802017b8:	f10f7c5f 	cmp	x2, #0x3df
    802017bc:	54000048 	b.hi	802017c4 <gic_set_prio+0x14>  // b.pmore
    if (irq_in_gicd(int_id)) {
        return gicd_set_prio(int_id, prio);
    802017c0:	17fffe18 	b	80201020 <gicd_set_prio>
SYSREG_GEN_ACCESSORS(mpidr_el1);
    802017c4:	d53800a2 	mrs	x2, mpidr_el1
    } else {
        return gicr_set_prio(int_id, prio, get_cpuid());
    802017c8:	12001c42 	and	w2, w2, #0xff
    802017cc:	17fffeee 	b	80201384 <gicr_set_prio>

00000000802017d0 <gic_get_prio>:
    if (int_id > 32 && int_id < 1025) return true;
    802017d0:	d1008401 	sub	x1, x0, #0x21
    802017d4:	f10f7c3f 	cmp	x1, #0x3df
    802017d8:	54000048 	b.hi	802017e0 <gic_get_prio+0x10>  // b.pmore
}

unsigned long gic_get_prio(unsigned long int_id)
{
    if (irq_in_gicd(int_id)) {
        return gicd_get_prio(int_id);
    802017dc:	17fffdd9 	b	80200f40 <gicd_get_prio>
    802017e0:	d53800a1 	mrs	x1, mpidr_el1
    } else {
        return gicr_get_prio(int_id, get_cpuid());
    802017e4:	12001c21 	and	w1, w1, #0xff
    802017e8:	17ffff0e 	b	80201420 <gicr_get_prio>
    802017ec:	d503201f 	nop

00000000802017f0 <gic_set_icfgr>:
    if (int_id > 32 && int_id < 1025) return true;
    802017f0:	d1008402 	sub	x2, x0, #0x21
    }
}

void gic_set_icfgr(unsigned long int_id, uint8_t cfg)
{
    802017f4:	12001c21 	and	w1, w1, #0xff
    if (int_id > 32 && int_id < 1025) return true;
    802017f8:	f10f7c5f 	cmp	x2, #0x3df
    802017fc:	54000048 	b.hi	80201804 <gic_set_icfgr+0x14>  // b.pmore
    if (irq_in_gicd(int_id)) {
        return gicd_set_icfgr(int_id, cfg);
    80201800:	17fffdec 	b	80200fb0 <gicd_set_icfgr>
    80201804:	d53800a2 	mrs	x2, mpidr_el1
    } else {
        return gicr_set_icfgr(int_id, cfg, get_cpuid());
    80201808:	12001c42 	and	w2, w2, #0xff
    8020180c:	17ffff25 	b	802014a0 <gicr_set_icfgr>

0000000080201810 <gic_get_state>:
    if (int_id > 32 && int_id < 1025) return true;
    80201810:	d1008401 	sub	x1, x0, #0x21
    80201814:	f10f7c3f 	cmp	x1, #0x3df
    80201818:	54000048 	b.hi	80201820 <gic_get_state+0x10>  // b.pmore
}

enum int_state gic_get_state(unsigned long int_id)
{
    if (irq_in_gicd(int_id)) {
        return gicd_get_state(int_id);
    8020181c:	17fffe21 	b	802010a0 <gicd_get_state>
    80201820:	d53800a1 	mrs	x1, mpidr_el1
    } else {
        return gicr_get_state(int_id, get_cpuid());
    80201824:	12001c21 	and	w1, w1, #0xff
    80201828:	17ffff47 	b	80201544 <gicr_get_state>
    8020182c:	d503201f 	nop

0000000080201830 <gic_set_act>:
    if (int_id > 32 && int_id < 1025) return true;
    80201830:	d1008402 	sub	x2, x0, #0x21
        return gicr_set_pend(int_id, pend, get_cpuid());
    }
}

void gic_set_act(unsigned long int_id, bool act)
{
    80201834:	12001c21 	and	w1, w1, #0xff
    if (int_id > 32 && int_id < 1025) return true;
    80201838:	f10f7c5f 	cmp	x2, #0x3df
    8020183c:	54000048 	b.hi	80201844 <gic_set_act+0x14>  // b.pmore
    if (irq_in_gicd(int_id)) {
        return gicd_set_act(int_id, act);
    80201840:	17fffe30 	b	80201100 <gicd_set_act>
    80201844:	d53800a2 	mrs	x2, mpidr_el1
    } else {
        return gicr_set_act(int_id, act, get_cpuid());
    80201848:	12001c42 	and	w2, w2, #0xff
    8020184c:	17ffff59 	b	802015b0 <gicr_set_act>

0000000080201850 <gic_set_state>:
    if (int_id > 32 && int_id < 1025) return true;
    80201850:	d1008402 	sub	x2, x0, #0x21
    80201854:	f10f7c5f 	cmp	x2, #0x3df
    80201858:	54000048 	b.hi	80201860 <gic_set_state+0x10>  // b.pmore
}

void gic_set_state(unsigned long int_id, enum int_state state)
{
    if (irq_in_gicd(int_id)) {
        return gicd_set_state(int_id, state);
    8020185c:	17fffe45 	b	80201170 <gicd_set_state>
    80201860:	d53800a2 	mrs	x2, mpidr_el1
    } else {
        return gicr_set_state(int_id, state, get_cpuid());
    80201864:	12001c42 	and	w2, w2, #0xff
    80201868:	17ffff6e 	b	80201620 <gicr_set_state>
    8020186c:	d503201f 	nop

0000000080201870 <gic_set_trgt>:
    if (int_id > 32 && int_id < 1025) return true;
    80201870:	d1008402 	sub	x2, x0, #0x21
    80201874:	f10f7c5f 	cmp	x2, #0x3df
    80201878:	54000068 	b.hi	80201884 <gic_set_trgt+0x14>  // b.pmore
    8020187c:	12001c21 	and	w1, w1, #0xff
}

void gic_set_trgt(unsigned long int_id, uint8_t trgt)
{
    if (irq_in_gicd(int_id)) {
        return gicd_set_trgt(int_id, trgt);
    80201880:	17fffe78 	b	80201260 <gicd_set_trgt>
{
    80201884:	d10043ff 	sub	sp, sp, #0x10
    80201888:	d53800a0 	mrs	x0, mpidr_el1
    asm volatile (
    8020188c:	b0000100 	adrp	x0, 80222000 <init_lock>
    80201890:	91004000 	add	x0, x0, #0x10
    80201894:	52800021 	mov	w1, #0x1                   	// #1
    80201898:	91001003 	add	x3, x0, #0x4
    8020189c:	885ffc62 	ldaxr	w2, [x3]
    802018a0:	35ffffe2 	cbnz	w2, 8020189c <gic_set_trgt+0x2c>
    802018a4:	88027c61 	stxr	w2, w1, [x3]
    802018a8:	35ffffa2 	cbnz	w2, 8020189c <gic_set_trgt+0x2c>
    802018ac:	b9000fe2 	str	w2, [sp, #12]
    asm volatile ("stlr wzr, %0\n\t" :: "Q"(*lock));
    802018b0:	889ffc7f 	stlr	wzr, [x3]
    } else {
        return gicr_set_trgt(int_id, trgt, get_cpuid());
    }
}
    802018b4:	910043ff 	add	sp, sp, #0x10
    802018b8:	d65f03c0 	ret
    802018bc:	d503201f 	nop

00000000802018c0 <gic_set_route>:
    if (gic_is_priv(int_id)) return;
    802018c0:	f1007c1f 	cmp	x0, #0x1f
    802018c4:	54000129 	b.ls	802018e8 <gic_set_route+0x28>  // b.plast
    volatile uint32_t *irouter = (uint32_t*) &gicd->IROUTER[int_id];
    802018c8:	90000082 	adrp	x2, 80211000 <__mprec_tens+0x180>
    802018cc:	91300000 	add	x0, x0, #0xc00
    irouter[1] = (_trgt >> 32);
    802018d0:	d360fc24 	lsr	x4, x1, #32
    volatile uint32_t *irouter = (uint32_t*) &gicd->IROUTER[int_id];
    802018d4:	f9401442 	ldr	x2, [x2, #40]
    802018d8:	d37df000 	lsl	x0, x0, #3
    802018dc:	8b000043 	add	x3, x2, x0
    irouter[0] = _trgt;
    802018e0:	b8206841 	str	w1, [x2, x0]
    irouter[1] = (_trgt >> 32);
    802018e4:	b9000464 	str	w4, [x3, #4]

void gic_set_route(unsigned long int_id, unsigned long trgt)
{
    return gicd_set_route(int_id, trgt);
}
    802018e8:	d65f03c0 	ret
    802018ec:	d503201f 	nop

00000000802018f0 <gic_set_enable>:
    if (int_id > 32 && int_id < 1025) return true;
    802018f0:	d1008402 	sub	x2, x0, #0x21

void gic_set_enable(unsigned long int_id, bool en)
{
    802018f4:	12001c21 	and	w1, w1, #0xff
    if (int_id > 32 && int_id < 1025) return true;
    802018f8:	f10f7c5f 	cmp	x2, #0x3df
    802018fc:	54000048 	b.hi	80201904 <gic_set_enable+0x14>  // b.pmore
    if (irq_in_gicd(int_id)) {
        return gicd_set_enable(int_id, en);
    80201900:	17fffe84 	b	80201310 <gicd_set_enable>
    80201904:	d53800a2 	mrs	x2, mpidr_el1
    } else {
        return gicr_set_enable(int_id, en, get_cpuid());
    80201908:	12001c42 	and	w2, w2, #0xff
    8020190c:	17ffff82 	b	80201714 <gicr_set_enable>

0000000080201910 <gicr_set_propbaser>:
}

/*LPI support*/
void gicr_set_propbaser(uint64_t propbaser,uint8_t rdist_id)
{
    gicr[rdist_id].PROPBASER = propbaser;
    80201910:	90000082 	adrp	x2, 80211000 <__mprec_tens+0x180>
    80201914:	d36f1c21 	ubfiz	x1, x1, #17, #8
    80201918:	f9401842 	ldr	x2, [x2, #48]
    8020191c:	8b010042 	add	x2, x2, x1
    80201920:	f9003840 	str	x0, [x2, #112]
}
    80201924:	d65f03c0 	ret
    80201928:	d503201f 	nop
    8020192c:	d503201f 	nop

0000000080201930 <gicr_set_pendbaser>:

void gicr_set_pendbaser(uint64_t pendbaser,uint8_t rdist_id)
{
    gicr[rdist_id].PENDBASER = pendbaser;
    80201930:	90000082 	adrp	x2, 80211000 <__mprec_tens+0x180>
    80201934:	d36f1c21 	ubfiz	x1, x1, #17, #8
    80201938:	f9401842 	ldr	x2, [x2, #48]
    8020193c:	8b010042 	add	x2, x2, x1
    80201940:	f9003c40 	str	x0, [x2, #120]
}
    80201944:	d65f03c0 	ret
    80201948:	d503201f 	nop
    8020194c:	d503201f 	nop

0000000080201950 <gicr_disable_lpi>:

void gicr_disable_lpi(uint8_t rdist_id)
{
    gicr[rdist_id].CTLR &= ~0x1; 
    80201950:	90000081 	adrp	x1, 80211000 <__mprec_tens+0x180>
    80201954:	d36f1c00 	ubfiz	x0, x0, #17, #8
    80201958:	f9401822 	ldr	x2, [x1, #48]
    8020195c:	b8606841 	ldr	w1, [x2, x0]
    80201960:	121f7821 	and	w1, w1, #0xfffffffe
    80201964:	b8206841 	str	w1, [x2, x0]
}
    80201968:	d65f03c0 	ret
    8020196c:	d503201f 	nop

0000000080201970 <gicr_enable_lpi>:

void gicr_enable_lpi(uint8_t rdist_id)
{
    gicr[rdist_id].CTLR |= 0x1;
    80201970:	90000081 	adrp	x1, 80211000 <__mprec_tens+0x180>
    80201974:	d36f1c00 	ubfiz	x0, x0, #17, #8
    80201978:	f9401822 	ldr	x2, [x1, #48]
    8020197c:	b8606841 	ldr	w1, [x2, x0]
    80201980:	32000021 	orr	w1, w1, #0x1
    80201984:	b8206841 	str	w1, [x2, x0]
}
    80201988:	d65f03c0 	ret
    8020198c:	00000000 	udf	#0

0000000080201990 <its_send_mapc>:
/* Command Generation*/

void its_send_mapc(){

    /*Point to the next cmd in the cmd queue*/
    struct its_cmd_block *its_cmd = (struct its_cmd_block *)(its.cmd_queue + cmd_off);
    80201990:	f0000160 	adrp	x0, 80230000 <its>
    80201994:	91000002 	add	x2, x0, #0x0

    /*MAP Coll ID 0 to redistributor 0*/

    its_cmd->cmd[0] = 0x09;
    80201998:	d2800124 	mov	x4, #0x9                   	// #9
    its_cmd->cmd[1] = 0x00;
    its_cmd->cmd[2] = 0x8000000000000000;
    8020199c:	d2f00003 	mov	x3, #0x8000000000000000    	// #-9223372036854775808
    struct its_cmd_block *its_cmd = (struct its_cmd_block *)(its.cmd_queue + cmd_off);
    802019a0:	f9400001 	ldr	x1, [x0]
    802019a4:	b9402842 	ldr	w2, [x2, #40]
    802019a8:	8b010040 	add	x0, x2, x1
    its_cmd->cmd[0] = 0x09;
    802019ac:	f8216844 	str	x4, [x2, x1]
    its_cmd->cmd[2] = 0x8000000000000000;
    802019b0:	a9008c1f 	stp	xzr, x3, [x0, #8]
    its_cmd->cmd[3] = 0x00;
    802019b4:	f9000c1f 	str	xzr, [x0, #24]


}
    802019b8:	d65f03c0 	ret
    802019bc:	d503201f 	nop

00000000802019c0 <its_send_invall>:

void its_send_invall(){

    /*Point to the next cmd in the cmd qeueu*/
    struct its_cmd_block *its_cmd = (struct its_cmd_block *)(its.cmd_queue + cmd_off);
    802019c0:	f0000160 	adrp	x0, 80230000 <its>
    802019c4:	91000002 	add	x2, x0, #0x0

    its_cmd->cmd[0] = 0x0d;
    802019c8:	d28001a3 	mov	x3, #0xd                   	// #13
    struct its_cmd_block *its_cmd = (struct its_cmd_block *)(its.cmd_queue + cmd_off);
    802019cc:	f9400001 	ldr	x1, [x0]
    802019d0:	b9402842 	ldr	w2, [x2, #40]
    802019d4:	8b010040 	add	x0, x2, x1
    its_cmd->cmd[0] = 0x0d;
    802019d8:	f8216843 	str	x3, [x2, x1]
    its_cmd->cmd[1] = 0x00;
    its_cmd->cmd[2] = 0x00;
    802019dc:	a900fc1f 	stp	xzr, xzr, [x0, #8]
    its_cmd->cmd[3] = 0x00;
    802019e0:	f9000c1f 	str	xzr, [x0, #24]

}
    802019e4:	d65f03c0 	ret
    802019e8:	d503201f 	nop
    802019ec:	d503201f 	nop

00000000802019f0 <its_send_int>:

void its_send_int(){
    /*Point to the next cmd in the cmd qeueu*/
    struct its_cmd_block *its_cmd = (struct its_cmd_block *)(its.cmd_queue + cmd_off);
    802019f0:	f0000160 	adrp	x0, 80230000 <its>
    802019f4:	91000002 	add	x2, x0, #0x0

    /*Generate lpi associated to the eventID 0 and device ID 0*/

    its_cmd->cmd[0] = 0x03;
    802019f8:	d2800063 	mov	x3, #0x3                   	// #3
    struct its_cmd_block *its_cmd = (struct its_cmd_block *)(its.cmd_queue + cmd_off);
    802019fc:	f9400001 	ldr	x1, [x0]
    80201a00:	b9402842 	ldr	w2, [x2, #40]
    80201a04:	8b010040 	add	x0, x2, x1
    its_cmd->cmd[0] = 0x03;
    80201a08:	f8216843 	str	x3, [x2, x1]
    its_cmd->cmd[1] = 0x00;
    its_cmd->cmd[2] = 0x00;
    80201a0c:	a900fc1f 	stp	xzr, xzr, [x0, #8]
    its_cmd->cmd[3] = 0x00;
    80201a10:	f9000c1f 	str	xzr, [x0, #24]

}
    80201a14:	d65f03c0 	ret
    80201a18:	d503201f 	nop
    80201a1c:	d503201f 	nop

0000000080201a20 <its_send_sync>:

void its_send_sync(){

    struct its_cmd_block *its_cmd = (struct its_cmd_block *)(its.cmd_queue + cmd_off);
    80201a20:	f0000160 	adrp	x0, 80230000 <its>
    80201a24:	91000002 	add	x2, x0, #0x0

    /*Sync redistributor 0*/

    its_cmd->cmd[0] = 0x05;
    80201a28:	d28000a3 	mov	x3, #0x5                   	// #5
    struct its_cmd_block *its_cmd = (struct its_cmd_block *)(its.cmd_queue + cmd_off);
    80201a2c:	f9400001 	ldr	x1, [x0]
    80201a30:	b9402842 	ldr	w2, [x2, #40]
    80201a34:	8b010040 	add	x0, x2, x1
    its_cmd->cmd[0] = 0x05;
    80201a38:	f8216843 	str	x3, [x2, x1]
    its_cmd->cmd[1] = 0x00;
    its_cmd->cmd[2] = 0x00;
    80201a3c:	a900fc1f 	stp	xzr, xzr, [x0, #8]
    its_cmd->cmd[3] = 0x00;
    80201a40:	f9000c1f 	str	xzr, [x0, #24]

}
    80201a44:	d65f03c0 	ret
    80201a48:	d503201f 	nop
    80201a4c:	d503201f 	nop

0000000080201a50 <its_send_mapd>:

void its_send_mapd(){

    uint64_t itt_addr = (uint64_t)its.itt_table;
    80201a50:	f0000161 	adrp	x1, 80230000 <its>
    80201a54:	91000020 	add	x0, x1, #0x0
    struct its_cmd_block *its_cmd = (struct its_cmd_block *)(its.cmd_queue + cmd_off);

    /*Map device id 0 to ITT address*/

    its_cmd->cmd[0] = 0x08;
    80201a58:	d2800105 	mov	x5, #0x8                   	// #8
    its_cmd->cmd[1] = 0x01;       /*1 bit size*/
    80201a5c:	d2800024 	mov	x4, #0x1                   	// #1
    struct its_cmd_block *its_cmd = (struct its_cmd_block *)(its.cmd_queue + cmd_off);
    80201a60:	f9400022 	ldr	x2, [x1]
    80201a64:	b9402803 	ldr	w3, [x0, #40]
    uint64_t itt_addr = (uint64_t)its.itt_table;
    80201a68:	f9400801 	ldr	x1, [x0, #16]
    struct its_cmd_block *its_cmd = (struct its_cmd_block *)(its.cmd_queue + cmd_off);
    80201a6c:	8b020060 	add	x0, x3, x2
    its_cmd->cmd[0] = 0x08;
    80201a70:	f8226865 	str	x5, [x3, x2]
    its_cmd->cmd[2] = (1ULL << 63) | itt_addr;        /*Verify alignment*/
    80201a74:	b2410021 	orr	x1, x1, #0x8000000000000000
    80201a78:	a9008404 	stp	x4, x1, [x0, #8]
    its_cmd->cmd[3] = 0x00;
    80201a7c:	f9000c1f 	str	xzr, [x0, #24]

}
    80201a80:	d65f03c0 	ret

0000000080201a84 <its_send_mapti>:

void its_send_mapti(){

    struct its_cmd_block *its_cmd = (struct its_cmd_block *)(its.cmd_queue + cmd_off);
    80201a84:	f0000160 	adrp	x0, 80230000 <its>
    80201a88:	91000002 	add	x2, x0, #0x0

    its_cmd->cmd[0] = 0x0a;
    80201a8c:	d2800144 	mov	x4, #0xa                   	// #10
    its_cmd->cmd[1] = 0x200000000000;       /*8192 pINTID*/
    80201a90:	d2c40003 	mov	x3, #0x200000000000        	// #35184372088832
    struct its_cmd_block *its_cmd = (struct its_cmd_block *)(its.cmd_queue + cmd_off);
    80201a94:	f9400001 	ldr	x1, [x0]
    80201a98:	b9402842 	ldr	w2, [x2, #40]
    80201a9c:	8b010040 	add	x0, x2, x1
    its_cmd->cmd[0] = 0x0a;
    80201aa0:	f8216844 	str	x4, [x2, x1]
    its_cmd->cmd[2] = 0x00;                 /*Coll ID 0*/
    80201aa4:	a900fc03 	stp	x3, xzr, [x0, #8]
    its_cmd->cmd[3] = 0x00;
    80201aa8:	f9000c1f 	str	xzr, [x0, #24]



}
    80201aac:	d65f03c0 	ret

0000000080201ab0 <its_send_inv>:

void its_send_inv(){
    struct its_cmd_block *its_cmd = (struct its_cmd_block *)(its.cmd_queue + cmd_off);
    80201ab0:	f0000160 	adrp	x0, 80230000 <its>
    80201ab4:	91000002 	add	x2, x0, #0x0

    /*Cache consistent with LPI tables held in memory*/

    its_cmd->cmd[0] = 0x0c;
    80201ab8:	d2800183 	mov	x3, #0xc                   	// #12
    struct its_cmd_block *its_cmd = (struct its_cmd_block *)(its.cmd_queue + cmd_off);
    80201abc:	f9400001 	ldr	x1, [x0]
    80201ac0:	b9402842 	ldr	w2, [x2, #40]
    80201ac4:	8b010040 	add	x0, x2, x1
    its_cmd->cmd[0] = 0x0c;
    80201ac8:	f8216843 	str	x3, [x2, x1]
    its_cmd->cmd[1] = 0x00;
    its_cmd->cmd[2] = 0x00;
    80201acc:	a900fc1f 	stp	xzr, xzr, [x0, #8]
    its_cmd->cmd[3] = 0x00;
    80201ad0:	f9000c1f 	str	xzr, [x0, #24]
}
    80201ad4:	d65f03c0 	ret
    80201ad8:	d503201f 	nop
    80201adc:	d503201f 	nop

0000000080201ae0 <its_cpu_init_collections>:
void its_cpu_init_collections(){

    /*Bind the Collection ID with the target redistributor*/
    /*For this configuration, collection ID 0 is hardwired to redistributor 0*/

    cmd_off = gits->CWRITER;
    80201ae0:	90000080 	adrp	x0, 80211000 <__mprec_tens+0x180>
    struct its_cmd_block *its_cmd = (struct its_cmd_block *)(its.cmd_queue + cmd_off);
    80201ae4:	f0000162 	adrp	x2, 80230000 <its>
    its_cmd->cmd[0] = 0x09;
    80201ae8:	d2800126 	mov	x6, #0x9                   	// #9
    its_cmd->cmd[2] = 0x8000000000000000;
    80201aec:	d2f0000e 	mov	x14, #0x8000000000000000    	// #-9223372036854775808
    cmd_off = gits->CWRITER;
    80201af0:	f9401c05 	ldr	x5, [x0, #56]
    its_cmd->cmd[0] = 0x05;
    80201af4:	d28000a8 	mov	x8, #0x5                   	// #5
    struct its_cmd_block *its_cmd = (struct its_cmd_block *)(its.cmd_queue + cmd_off);
    80201af8:	f9400041 	ldr	x1, [x2]
    80201afc:	91000044 	add	x4, x2, #0x0
    cmd_off = gits->CWRITER;
    80201b00:	f94044a0 	ldr	x0, [x5, #136]
    its_cmd->cmd[0] = 0x0d;
    80201b04:	d28001ac 	mov	x12, #0xd                   	// #13
    its_send_mapc();
    cmd_off += 0x20;
    80201b08:	1100800d 	add	w13, w0, #0x20
    struct its_cmd_block *its_cmd = (struct its_cmd_block *)(its.cmd_queue + cmd_off);
    80201b0c:	11008003 	add	w3, w0, #0x20
    struct its_cmd_block *its_cmd = (struct its_cmd_block *)(its.cmd_queue + cmd_off);
    80201b10:	8b204027 	add	x7, x1, w0, uxtw
    its_cmd->cmd[0] = 0x09;
    80201b14:	f8204826 	str	x6, [x1, w0, uxtw]
    struct its_cmd_block *its_cmd = (struct its_cmd_block *)(its.cmd_queue + cmd_off);
    80201b18:	8b010063 	add	x3, x3, x1

    //flush


    /*Increment CWRITTER*/
    gits->CWRITER = cmd_off;
    80201b1c:	11010009 	add	w9, w0, #0x40
    cmd_off += 0x20;
    80201b20:	1101000b 	add	w11, w0, #0x40
    struct its_cmd_block *its_cmd = (struct its_cmd_block *)(its.cmd_queue + cmd_off);
    80201b24:	8b010126 	add	x6, x9, x1
    its_cmd->cmd[2] = 0x8000000000000000;
    80201b28:	a900b8ff 	stp	xzr, x14, [x7, #8]

    its_send_invall();
    cmd_off += 0x20;
    80201b2c:	1101800a 	add	w10, w0, #0x60
    struct its_cmd_block *its_cmd = (struct its_cmd_block *)(its.cmd_queue + cmd_off);
    80201b30:	11018002 	add	w2, w0, #0x60
    its_cmd->cmd[3] = 0x00;
    80201b34:	f9000cff 	str	xzr, [x7, #24]
    struct its_cmd_block *its_cmd = (struct its_cmd_block *)(its.cmd_queue + cmd_off);
    80201b38:	8b010042 	add	x2, x2, x1
    its_cmd->cmd[0] = 0x05;
    80201b3c:	f82d4828 	str	x8, [x1, w13, uxtw]
    its_send_sync();
    cmd_off += 0x20;
    80201b40:	11020007 	add	w7, w0, #0x80
    its_cmd->cmd[2] = 0x00;
    80201b44:	a900fc7f 	stp	xzr, xzr, [x3, #8]
    its_cmd->cmd[3] = 0x00;
    80201b48:	f9000c7f 	str	xzr, [x3, #24]
    gits->CWRITER = cmd_off;
    80201b4c:	f90044a9 	str	x9, [x5, #136]
    its_cmd->cmd[0] = 0x0d;
    80201b50:	f82b482c 	str	x12, [x1, w11, uxtw]
    its_cmd->cmd[2] = 0x00;
    80201b54:	a900fcdf 	stp	xzr, xzr, [x6, #8]
    its_cmd->cmd[3] = 0x00;
    80201b58:	f9000cdf 	str	xzr, [x6, #24]
    its_cmd->cmd[0] = 0x05;
    80201b5c:	f82a4828 	str	x8, [x1, w10, uxtw]
    its_cmd->cmd[2] = 0x00;
    80201b60:	a900fc5f 	stp	xzr, xzr, [x2, #8]
    its_cmd->cmd[3] = 0x00;
    80201b64:	f9000c5f 	str	xzr, [x2, #24]
    cmd_off += 0x20;
    80201b68:	b9002887 	str	w7, [x4, #40]

    gits->CWRITER = cmd_off;
    80201b6c:	f90044a7 	str	x7, [x5, #136]

}
    80201b70:	d65f03c0 	ret

0000000080201b74 <its_cpu_init>:


int its_cpu_init(void)
{
    80201b74:	a9bf7bfd 	stp	x29, x30, [sp, #-16]!
    80201b78:	910003fd 	mov	x29, sp
    int ret;

    /*UPDATE Collection table*/
	its_cpu_init_collections();
    80201b7c:	97ffffd9 	bl	80201ae0 <its_cpu_init_collections>

	return 0;
}
    80201b80:	52800000 	mov	w0, #0x0                   	// #0
    80201b84:	a8c17bfd 	ldp	x29, x30, [sp], #16
    80201b88:	d65f03c0 	ret
    80201b8c:	d503201f 	nop

0000000080201b90 <its_device_init>:

/*
    Device specific initialization
*/

int its_device_init(){
    80201b90:	a9bd7bfd 	stp	x29, x30, [sp, #-48]!
    its_cmd->cmd[0] = 0x08;
    80201b94:	d2800105 	mov	x5, #0x8                   	// #8
    its_cmd->cmd[1] = 0x01;       /*1 bit size*/
    80201b98:	d2800023 	mov	x3, #0x1                   	// #1
int its_device_init(){
    80201b9c:	910003fd 	mov	x29, sp
    80201ba0:	a9025bf5 	stp	x21, x22, [sp, #32]

    /*Map the itt_addr to the device_ID in device table*/
    cmd_off = gits->CWRITER;
    80201ba4:	90000096 	adrp	x22, 80211000 <__mprec_tens+0x180>
    its_cmd->cmd[0] = 0x0a;
    80201ba8:	d280014b 	mov	x11, #0xa                   	// #10
    cmd_off = gits->CWRITER;
    80201bac:	f9401ec4 	ldr	x4, [x22, #56]
int its_device_init(){
    80201bb0:	a90153f3 	stp	x19, x20, [sp, #16]
    uint64_t itt_addr = (uint64_t)its.itt_table;
    80201bb4:	f0000174 	adrp	x20, 80230000 <its>
    80201bb8:	91000293 	add	x19, x20, #0x0
    its_cmd->cmd[1] = 0x200000000000;       /*8192 pINTID*/
    80201bbc:	d2c4000a 	mov	x10, #0x200000000000        	// #35184372088832
    cmd_off = gits->CWRITER;
    80201bc0:	f9404480 	ldr	x0, [x4, #136]
    its_cmd->cmd[0] = 0x05;
    80201bc4:	d28000b5 	mov	x21, #0x5                   	// #5
    struct its_cmd_block *its_cmd = (struct its_cmd_block *)(its.cmd_queue + cmd_off);
    80201bc8:	f9400282 	ldr	x2, [x20]
    its_send_mapd();
    //its_send_sync(); // ???
    cmd_off += 0x20;

    gits->CWRITER = cmd_off;
    80201bcc:	11008007 	add	w7, w0, #0x20
    uint64_t itt_addr = (uint64_t)its.itt_table;
    80201bd0:	f9400a66 	ldr	x6, [x19, #16]
    cmd_off += 0x20;
    80201bd4:	11008008 	add	w8, w0, #0x20
    struct its_cmd_block *its_cmd = (struct its_cmd_block *)(its.cmd_queue + cmd_off);
    80201bd8:	8b204041 	add	x1, x2, w0, uxtw
    its_cmd->cmd[0] = 0x08;
    80201bdc:	f8204845 	str	x5, [x2, w0, uxtw]
    its_cmd->cmd[2] = (1ULL << 63) | itt_addr;        /*Verify alignment*/
    80201be0:	b24100c6 	orr	x6, x6, #0x8000000000000000
    struct its_cmd_block *its_cmd = (struct its_cmd_block *)(its.cmd_queue + cmd_off);
    80201be4:	8b0200e5 	add	x5, x7, x2

    /*Map the eventID and deviceID to collection ID int the itt table*/
    its_send_mapti();
    cmd_off += 0x20;
    80201be8:	11010009 	add	w9, w0, #0x40
    its_cmd->cmd[2] = (1ULL << 63) | itt_addr;        /*Verify alignment*/
    80201bec:	a9009823 	stp	x3, x6, [x1, #8]
    struct its_cmd_block *its_cmd = (struct its_cmd_block *)(its.cmd_queue + cmd_off);
    80201bf0:	11010003 	add	w3, w0, #0x40
    80201bf4:	8b020063 	add	x3, x3, x2
    its_cmd->cmd[3] = 0x00;
    80201bf8:	f9000c3f 	str	xzr, [x1, #24]
    its_send_sync();
    cmd_off += 0x20;
    80201bfc:	11018001 	add	w1, w0, #0x60
    gits->CWRITER = cmd_off;
    80201c00:	f9004487 	str	x7, [x4, #136]
    its.prop_table[pINTID - 8192] = val;
    80201c04:	12800bc7 	mov	w7, #0xffffffa1            	// #-95
    80201c08:	f9400e66 	ldr	x6, [x19, #24]
    its_cmd->cmd[0] = 0x0a;
    80201c0c:	f828484b 	str	x11, [x2, w8, uxtw]
    its_cmd->cmd[2] = 0x00;                 /*Coll ID 0*/
    80201c10:	a900fcaa 	stp	x10, xzr, [x5, #8]

    gits->CWRITER = cmd_off;
    80201c14:	2a0103e8 	mov	w8, w1
    printf("Value of prop 0 is 0x%x\n",its.prop_table[0]);
    80201c18:	f0000060 	adrp	x0, 80210000 <__trunctfdf2+0xc0>
    its_cmd->cmd[3] = 0x00;
    80201c1c:	f9000cbf 	str	xzr, [x5, #24]
    printf("Value of prop 0 is 0x%x\n",its.prop_table[0]);
    80201c20:	910f0000 	add	x0, x0, #0x3c0
    its_cmd->cmd[0] = 0x05;
    80201c24:	f8294855 	str	x21, [x2, w9, uxtw]
    its_cmd->cmd[2] = 0x00;
    80201c28:	a900fc7f 	stp	xzr, xzr, [x3, #8]
    its_cmd->cmd[3] = 0x00;
    80201c2c:	f9000c7f 	str	xzr, [x3, #24]
    cmd_off += 0x20;
    80201c30:	b9002a61 	str	w1, [x19, #40]
    gits->CWRITER = cmd_off;
    80201c34:	f9004488 	str	x8, [x4, #136]
    its.prop_table[pINTID - 8192] = val;
    80201c38:	390000c7 	strb	w7, [x6]
    printf("Value of prop 0 is 0x%x\n",its.prop_table[0]);
    80201c3c:	f9400e61 	ldr	x1, [x19, #24]
    80201c40:	39400021 	ldrb	w1, [x1]
    80201c44:	9400030f 	bl	80202880 <printf>
    struct its_cmd_block *its_cmd = (struct its_cmd_block *)(its.cmd_queue + cmd_off);
    80201c48:	f9400283 	ldr	x3, [x20]
    its_cmd->cmd[0] = 0x0c;
    80201c4c:	d2800181 	mov	x1, #0xc                   	// #12
    struct its_cmd_block *its_cmd = (struct its_cmd_block *)(its.cmd_queue + cmd_off);
    80201c50:	b9402a60 	ldr	w0, [x19, #40]
    its_send_inv();
    cmd_off += 0x20;
    its_send_sync();    //all the ITS operations globally observed
    cmd_off += 0x20;

    gits->CWRITER = cmd_off;
    80201c54:	f9401ec5 	ldr	x5, [x22, #56]
    cmd_off += 0x20;
    80201c58:	11008007 	add	w7, w0, #0x20
    struct its_cmd_block *its_cmd = (struct its_cmd_block *)(its.cmd_queue + cmd_off);
    80201c5c:	8b204064 	add	x4, x3, w0, uxtw
    struct its_cmd_block *its_cmd = (struct its_cmd_block *)(its.cmd_queue + cmd_off);
    80201c60:	11008002 	add	w2, w0, #0x20
    its_cmd->cmd[0] = 0x0c;
    80201c64:	f8204861 	str	x1, [x3, w0, uxtw]
    struct its_cmd_block *its_cmd = (struct its_cmd_block *)(its.cmd_queue + cmd_off);
    80201c68:	8b030042 	add	x2, x2, x3
    cmd_off += 0x20;
    80201c6c:	11010006 	add	w6, w0, #0x40

    return 0;
}
    80201c70:	52800000 	mov	w0, #0x0                   	// #0
    its_cmd->cmd[2] = 0x00;
    80201c74:	a900fc9f 	stp	xzr, xzr, [x4, #8]
    its_cmd->cmd[3] = 0x00;
    80201c78:	f9000c9f 	str	xzr, [x4, #24]
    its_cmd->cmd[0] = 0x05;
    80201c7c:	f8274875 	str	x21, [x3, w7, uxtw]
}
    80201c80:	a9425bf5 	ldp	x21, x22, [sp, #32]
    its_cmd->cmd[2] = 0x00;
    80201c84:	a900fc5f 	stp	xzr, xzr, [x2, #8]
    its_cmd->cmd[3] = 0x00;
    80201c88:	f9000c5f 	str	xzr, [x2, #24]
    cmd_off += 0x20;
    80201c8c:	b9002a66 	str	w6, [x19, #40]
    gits->CWRITER = cmd_off;
    80201c90:	f90044a6 	str	x6, [x5, #136]
}
    80201c94:	a94153f3 	ldp	x19, x20, [sp, #16]
    80201c98:	a8c37bfd 	ldp	x29, x30, [sp], #48
    80201c9c:	d65f03c0 	ret

0000000080201ca0 <its_trigger_lpi>:

void its_trigger_lpi(){
    cmd_off = gits->CWRITER;
    80201ca0:	90000080 	adrp	x0, 80211000 <__mprec_tens+0x180>
    struct its_cmd_block *its_cmd = (struct its_cmd_block *)(its.cmd_queue + cmd_off);
    80201ca4:	f0000165 	adrp	x5, 80230000 <its>
    its_cmd->cmd[0] = 0x03;
    80201ca8:	d2800062 	mov	x2, #0x3                   	// #3
    cmd_off = gits->CWRITER;
    80201cac:	f9401c00 	ldr	x0, [x0, #56]
    struct its_cmd_block *its_cmd = (struct its_cmd_block *)(its.cmd_queue + cmd_off);
    80201cb0:	f94000a6 	ldr	x6, [x5]
    cmd_off = gits->CWRITER;
    80201cb4:	f9404403 	ldr	x3, [x0, #136]
    its_send_int();
    cmd_off += 0x20;
    80201cb8:	11008067 	add	w7, w3, #0x20
    gits->CWRITER = cmd_off;
    80201cbc:	11008064 	add	w4, w3, #0x20
    struct its_cmd_block *its_cmd = (struct its_cmd_block *)(its.cmd_queue + cmd_off);
    80201cc0:	8b2340c1 	add	x1, x6, w3, uxtw
    its_cmd->cmd[0] = 0x03;
    80201cc4:	f82348c2 	str	x2, [x6, w3, uxtw]
    its_cmd->cmd[2] = 0x00;
    80201cc8:	a900fc3f 	stp	xzr, xzr, [x1, #8]
    its_cmd->cmd[3] = 0x00;
    80201ccc:	f9000c3f 	str	xzr, [x1, #24]
    gits->CWRITER = cmd_off;
    80201cd0:	f9004404 	str	x4, [x0, #136]

    while(gits->CREADR != gits->CWRITER);
    80201cd4:	d503201f 	nop
    80201cd8:	f9404802 	ldr	x2, [x0, #144]
    80201cdc:	f9404401 	ldr	x1, [x0, #136]
    80201ce0:	eb01005f 	cmp	x2, x1
    80201ce4:	54ffffa1 	b.ne	80201cd8 <its_trigger_lpi+0x38>  // b.any
    struct its_cmd_block *its_cmd = (struct its_cmd_block *)(its.cmd_queue + cmd_off);
    80201ce8:	8b060081 	add	x1, x4, x6

    its_send_sync();
    cmd_off += 0x20;
    80201cec:	910000a5 	add	x5, x5, #0x0
    its_cmd->cmd[0] = 0x05;
    80201cf0:	d28000a2 	mov	x2, #0x5                   	// #5
    80201cf4:	f82748c2 	str	x2, [x6, w7, uxtw]
    cmd_off += 0x20;
    80201cf8:	11010062 	add	w2, w3, #0x40
    its_cmd->cmd[2] = 0x00;
    80201cfc:	a900fc3f 	stp	xzr, xzr, [x1, #8]
    its_cmd->cmd[3] = 0x00;
    80201d00:	f9000c3f 	str	xzr, [x1, #24]
    cmd_off += 0x20;
    80201d04:	b90028a2 	str	w2, [x5, #40]

    gits->CWRITER = cmd_off;
    80201d08:	f9004402 	str	x2, [x0, #136]
}
    80201d0c:	d65f03c0 	ret

0000000080201d10 <its_init>:

int its_init(void){
    80201d10:	a9bd7bfd 	stp	x29, x30, [sp, #-48]!

    int err;

    /*store table addrs in its data structure*/
    its.cmd_queue = (uint64_t)cmd_queue;
    its.device_table = device_table;
    80201d14:	f00002e5 	adrp	x5, 80260000 <device_table>
    its.itt_table = itt_table;
    80201d18:	f0000264 	adrp	x4, 80250000 <itt_table>
int its_init(void){
    80201d1c:	910003fd 	mov	x29, sp
    its.device_table = device_table;
    80201d20:	910000a5 	add	x5, x5, #0x0
    its.itt_table = itt_table;
    80201d24:	91000084 	add	x4, x4, #0x0
    its.prop_table = prop_table;
    80201d28:	f0000203 	adrp	x3, 80244000 <prop_table>
    its.pend_table = pend_table;
    80201d2c:	f00001e2 	adrp	x2, 80240000 <pend_table>
    its.prop_table = prop_table;
    80201d30:	91000063 	add	x3, x3, #0x0
    its.pend_table = pend_table;
    80201d34:	91000042 	add	x2, x2, #0x0
int its_init(void){
    80201d38:	a90153f3 	stp	x19, x20, [sp, #16]
    gits->CTLR &= 0xfffe;
    80201d3c:	90000094 	adrp	x20, 80211000 <__mprec_tens+0x180>
    its.cmd_queue = (uint64_t)cmd_queue;
    80201d40:	f0000361 	adrp	x1, 80270000 <cmd_queue>
int its_init(void){
    80201d44:	f90013f5 	str	x21, [sp, #32]
    its.cmd_queue = (uint64_t)cmd_queue;
    80201d48:	f0000175 	adrp	x21, 80230000 <its>
    80201d4c:	910002b3 	add	x19, x21, #0x0
    80201d50:	91000021 	add	x1, x1, #0x0

    printf("Value of cmd queue addr is 0x%lx",its.cmd_queue);
    80201d54:	f0000060 	adrp	x0, 80210000 <__trunctfdf2+0xc0>
    80201d58:	910f8000 	add	x0, x0, #0x3e0
    its.device_table = device_table;
    80201d5c:	a9001661 	stp	x1, x5, [x19]
    its.prop_table = prop_table;
    80201d60:	a9010e64 	stp	x4, x3, [x19, #16]
    its.pend_table = pend_table;
    80201d64:	f9001262 	str	x2, [x19, #32]
    printf("Value of cmd queue addr is 0x%lx",its.cmd_queue);
    80201d68:	940002c6 	bl	80202880 <printf>
    gits->CTLR &= 0xfffe;
    80201d6c:	f9401e82 	ldr	x2, [x20, #56]
    gicr_disable_lpi(0);
    80201d70:	52800000 	mov	w0, #0x0                   	// #0
    gits->CTLR &= 0xfffe;
    80201d74:	b9400041 	ldr	w1, [x2]
    80201d78:	121f3821 	and	w1, w1, #0xfffe
    80201d7c:	b9000041 	str	w1, [x2]
    gicr_disable_lpi(0);
    80201d80:	97fffef4 	bl	80201950 <gicr_disable_lpi>
    gits->CBASER = (uint64_t)its.cmd_queue | GITS_BASER_InnerShareable | GITS_BASER_RaWaWb | 0xf;
    80201d84:	f9401e83 	ldr	x3, [x20, #56]
    80201d88:	d28081e1 	mov	x1, #0x40f                 	// #1039
    80201d8c:	f94002a0 	ldr	x0, [x21]
    80201d90:	f2e70001 	movk	x1, #0x3800, lsl #48
            gits->BASER[index] = (uint64_t)its.itt_table | GITS_BASER_InnerShareable | GITS_BASER_RaWaWb;
    80201d94:	f9400a65 	ldr	x5, [x19, #16]
    gits->CBASER = (uint64_t)its.cmd_queue | GITS_BASER_InnerShareable | GITS_BASER_RaWaWb | 0xf;
    80201d98:	aa010000 	orr	x0, x0, x1
    80201d9c:	f9004060 	str	x0, [x3, #128]
            gits->BASER[index] = (uint64_t)its.itt_table | GITS_BASER_InnerShareable | GITS_BASER_RaWaWb;
    80201da0:	d1003c22 	sub	x2, x1, #0xf
    80201da4:	aa0200a5 	orr	x5, x5, x2
        if(bit_extract(gits->BASER[index], GITS_BASER_TYPE_OFF, GITS_BASER_TYPE_LEN) == 0x1) //Equal device table type
    80201da8:	d2e02004 	mov	x4, #0x100000000000000     	// #72057594037927936
    gits->CBASER |= 1ULL << 63; //add valid
    80201dac:	f9404061 	ldr	x1, [x3, #128]
    for (size_t index = 0; index < 8; index++) {
    80201db0:	d2800000 	mov	x0, #0x0                   	// #0
    gits->CBASER |= 1ULL << 63; //add valid
    80201db4:	b2410021 	orr	x1, x1, #0x8000000000000000
    80201db8:	f9004061 	str	x1, [x3, #128]
    for (size_t index = 0; index < 8; index++) {
    80201dbc:	d503201f 	nop
    80201dc0:	8b000c62 	add	x2, x3, x0, lsl #3
    80201dc4:	91000400 	add	x0, x0, #0x1
        if(bit_extract(gits->BASER[index], GITS_BASER_TYPE_OFF, GITS_BASER_TYPE_LEN) == 0x1) //Equal device table type
    80201dc8:	f9408041 	ldr	x1, [x2, #256]
    80201dcc:	92480821 	and	x1, x1, #0x700000000000000
    80201dd0:	eb04003f 	cmp	x1, x4
    80201dd4:	540000a1 	b.ne	80201de8 <its_init+0xd8>  // b.any
            gits->BASER[index] = (uint64_t)its.itt_table | GITS_BASER_InnerShareable | GITS_BASER_RaWaWb;
    80201dd8:	f9008045 	str	x5, [x2, #256]
            gits->BASER[index] |= (1ULL << 63);  //set valid bit
    80201ddc:	f9408041 	ldr	x1, [x2, #256]
    80201de0:	b2410021 	orr	x1, x1, #0x8000000000000000
    80201de4:	f9008041 	str	x1, [x2, #256]
    for (size_t index = 0; index < 8; index++) {
    80201de8:	f100201f 	cmp	x0, #0x8
    80201dec:	54fffea1 	b.ne	80201dc0 <its_init+0xb0>  // b.any
    propbaser = (uint64_t)its.prop_table | GICR_PROPBASER_InnerShareable | GICR_PROPBASER_RaWaWb | lpi_id_bits;
    80201df0:	f9400e62 	ldr	x2, [x19, #24]
    gicr_set_propbaser(propbaser,0);
    80201df4:	52800001 	mov	w1, #0x0                   	// #0
    propbaser = (uint64_t)its.prop_table | GICR_PROPBASER_InnerShareable | GICR_PROPBASER_RaWaWb | lpi_id_bits;
    80201df8:	d280f1e0 	mov	x0, #0x78f                 	// #1935
    gicr_set_propbaser(propbaser,0);
    80201dfc:	aa000040 	orr	x0, x2, x0
    80201e00:	97fffec4 	bl	80201910 <gicr_set_propbaser>
    uint64_t pendbaser = (uint64_t)its.pend_table | GICR_PROPBASER_InnerShareable | GICR_PROPBASER_RaWaWb;
    80201e04:	f9401260 	ldr	x0, [x19, #32]
    gicr_set_pendbaser(pendbaser,0);
    80201e08:	52800001 	mov	w1, #0x0                   	// #0
    80201e0c:	b2790c00 	orr	x0, x0, #0x780
    80201e10:	97fffec8 	bl	80201930 <gicr_set_pendbaser>
    gicr_enable_lpi(0);
    80201e14:	52800000 	mov	w0, #0x0                   	// #0
    80201e18:	97fffed6 	bl	80201970 <gicr_enable_lpi>
    gits->CTLR |= 0x1;
    80201e1c:	f9401e81 	ldr	x1, [x20, #56]
    *ptr = 0x2;
    80201e20:	d2980002 	mov	x2, #0xc000                	// #49152
    80201e24:	f2aa3442 	movk	x2, #0x51a2, lsl #16
    80201e28:	52800043 	mov	w3, #0x2                   	// #2
    gits->CTLR |= 0x1;
    80201e2c:	b9400020 	ldr	w0, [x1]
    80201e30:	32000000 	orr	w0, w0, #0x1
    80201e34:	b9000020 	str	w0, [x1]
    *ptr = 0x2;
    80201e38:	b9000043 	str	w3, [x2]
	its_cpu_init_collections();
    80201e3c:	97ffff29 	bl	80201ae0 <its_cpu_init_collections>
    err = its_cpu_init();
    if(err)
        return err;


    err = its_device_init();
    80201e40:	97ffff54 	bl	80201b90 <its_device_init>
    if(err)
    80201e44:	340000a0 	cbz	w0, 80201e58 <its_init+0x148>
    // printf("Value of trkpidr is 0x%x",*ptr);
    // ptr++;
    // printf("Value of trkvidr is 0x%x",*ptr);

    printf("ITS initialization finished\n");
    80201e48:	a94153f3 	ldp	x19, x20, [sp, #16]
    80201e4c:	f94013f5 	ldr	x21, [sp, #32]
    80201e50:	a8c37bfd 	ldp	x29, x30, [sp], #48
    80201e54:	d65f03c0 	ret
    80201e58:	a94153f3 	ldp	x19, x20, [sp, #16]
    printf("ITS initialization finished\n");
    80201e5c:	f0000060 	adrp	x0, 80210000 <__trunctfdf2+0xc0>
    80201e60:	f94013f5 	ldr	x21, [sp, #32]
    printf("ITS initialization finished\n");
    80201e64:	91102000 	add	x0, x0, #0x408
    80201e68:	a8c37bfd 	ldp	x29, x30, [sp], #48
    printf("ITS initialization finished\n");
    80201e6c:	140002e1 	b	802029f0 <puts>

0000000080201e70 <lpi_handler>:
//     }
//     return NULL;
// }


void lpi_handler(unsigned id){
    80201e70:	2a0003e1 	mov	w1, w0
    80201e74:	d53800a2 	mrs	x2, mpidr_el1
    printf("LPI %d received by cpu%d: %s\n",id, get_cpuid(), __func__);
    80201e78:	f0000063 	adrp	x3, 80210000 <__trunctfdf2+0xc0>
    80201e7c:	92401c42 	and	x2, x2, #0xff
    80201e80:	91200063 	add	x3, x3, #0x800
    80201e84:	f0000060 	adrp	x0, 80210000 <__trunctfdf2+0xc0>
    80201e88:	9110a000 	add	x0, x0, #0x428
    80201e8c:	1400027d 	b	80202880 <printf>

0000000080201e90 <main>:
}

void main(void){
    80201e90:	a9bc7bfd 	stp	x29, x30, [sp, #-64]!
    80201e94:	910003fd 	mov	x29, sp
    80201e98:	a90153f3 	stp	x19, x20, [sp, #16]
    80201e9c:	d53800a0 	mrs	x0, mpidr_el1
    80201ea0:	f00003f4 	adrp	x20, 80280000 <gits_lock>
    80201ea4:	91001293 	add	x19, x20, #0x4

    static volatile bool master_done = false;

    if(cpu_is_master()){
    80201ea8:	72001c1f 	tst	w0, #0xff
    80201eac:	54000260 	b.eq	80201ef8 <main+0x68>  // b.none
        //spin_unlock(&print_lock);   

        master_done = true;
    }

    while(!master_done);
    80201eb0:	39401260 	ldrb	w0, [x19, #4]
    80201eb4:	3607ffe0 	tbz	w0, #0, 80201eb0 <main+0x20>
    asm volatile (
    80201eb8:	52800020 	mov	w0, #0x1                   	// #1
    80201ebc:	91001282 	add	x2, x20, #0x4
    80201ec0:	885ffc41 	ldaxr	w1, [x2]
    80201ec4:	35ffffe1 	cbnz	w1, 80201ec0 <main+0x30>
    80201ec8:	88017c40 	stxr	w1, w0, [x2]
    80201ecc:	35ffffa1 	cbnz	w1, 80201ec0 <main+0x30>
    80201ed0:	b9003fe1 	str	w1, [sp, #60]
    80201ed4:	d53800a1 	mrs	x1, mpidr_el1
    spin_lock(&print_lock);
    printf("cpu %d up\n", get_cpuid());
    80201ed8:	f0000060 	adrp	x0, 80210000 <__trunctfdf2+0xc0>
    80201edc:	92401c21 	and	x1, x1, #0xff
    80201ee0:	91132000 	add	x0, x0, #0x4c8
    80201ee4:	94000267 	bl	80202880 <printf>
    asm volatile ("stlr wzr, %0\n\t" :: "Q"(*lock));
    80201ee8:	889ffe7f 	stlr	wzr, [x19]
    80201eec:	d503201f 	nop
    80201ef0:	d503207f 	wfi
    spin_unlock(&print_lock);

    while(1) wfi();
    80201ef4:	17ffffff 	b	80201ef0 <main+0x60>
    asm volatile (
    80201ef8:	f90013f5 	str	x21, [sp, #32]
    80201efc:	52800035 	mov	w21, #0x1                   	// #1
    80201f00:	885ffe61 	ldaxr	w1, [x19]
    80201f04:	35ffffe1 	cbnz	w1, 80201f00 <main+0x70>
    80201f08:	88017e75 	stxr	w1, w21, [x19]
    80201f0c:	35ffffa1 	cbnz	w1, 80201f00 <main+0x70>
         printf("Bao bare-metal test guest1\n");
    80201f10:	f0000060 	adrp	x0, 80210000 <__trunctfdf2+0xc0>
    80201f14:	91112000 	add	x0, x0, #0x448
    80201f18:	b9003be1 	str	w1, [sp, #56]
    80201f1c:	940002b5 	bl	802029f0 <puts>
         printf("Bao bare-metal test guest2\n");
    80201f20:	f0000060 	adrp	x0, 80210000 <__trunctfdf2+0xc0>
    80201f24:	9111a000 	add	x0, x0, #0x468
    80201f28:	940002b2 	bl	802029f0 <puts>
    asm volatile ("stlr wzr, %0\n\t" :: "Q"(*lock));
    80201f2c:	889ffe7f 	stlr	wzr, [x19]
        irq_set_handler(8192, lpi_handler);
    80201f30:	90000001 	adrp	x1, 80201000 <gicd_set_icfgr+0x50>
    80201f34:	9139c021 	add	x1, x1, #0xe70
    80201f38:	52840000 	mov	w0, #0x2000                	// #8192
    80201f3c:	97fffa31 	bl	80200800 <irq_set_handler>
        printf("Baremetal: Before trigger LPI\n");
    80201f40:	f0000060 	adrp	x0, 80210000 <__trunctfdf2+0xc0>
    80201f44:	91122000 	add	x0, x0, #0x488
    80201f48:	940002aa 	bl	802029f0 <puts>
        its_trigger_lpi();
    80201f4c:	97ffff55 	bl	80201ca0 <its_trigger_lpi>
        printf("Baremetal: After trigger LPI\n");
    80201f50:	f0000060 	adrp	x0, 80210000 <__trunctfdf2+0xc0>
    80201f54:	9112a000 	add	x0, x0, #0x4a8
    80201f58:	940002a6 	bl	802029f0 <puts>
        master_done = true;
    80201f5c:	39001275 	strb	w21, [x19, #4]
    80201f60:	f94013f5 	ldr	x21, [sp, #32]
    80201f64:	17ffffd3 	b	80201eb0 <main+0x20>
	...

0000000080202000 <_exception_vector>:
/* 
 * EL1 with SP0
 */  
.balign ENTRY_SIZE
curr_el_sp0_sync:        
    b	.
    80202000:	14000000 	b	80202000 <_exception_vector>
    80202004:	d503201f 	nop
    80202008:	d503201f 	nop
    8020200c:	d503201f 	nop
    80202010:	d503201f 	nop
    80202014:	d503201f 	nop
    80202018:	d503201f 	nop
    8020201c:	d503201f 	nop
    80202020:	d503201f 	nop
    80202024:	d503201f 	nop
    80202028:	d503201f 	nop
    8020202c:	d503201f 	nop
    80202030:	d503201f 	nop
    80202034:	d503201f 	nop
    80202038:	d503201f 	nop
    8020203c:	d503201f 	nop
    80202040:	d503201f 	nop
    80202044:	d503201f 	nop
    80202048:	d503201f 	nop
    8020204c:	d503201f 	nop
    80202050:	d503201f 	nop
    80202054:	d503201f 	nop
    80202058:	d503201f 	nop
    8020205c:	d503201f 	nop
    80202060:	d503201f 	nop
    80202064:	d503201f 	nop
    80202068:	d503201f 	nop
    8020206c:	d503201f 	nop
    80202070:	d503201f 	nop
    80202074:	d503201f 	nop
    80202078:	d503201f 	nop
    8020207c:	d503201f 	nop

0000000080202080 <curr_el_sp0_irq>:
.balign ENTRY_SIZE
curr_el_sp0_irq:  
    b   .
    80202080:	14000000 	b	80202080 <curr_el_sp0_irq>
    80202084:	d503201f 	nop
    80202088:	d503201f 	nop
    8020208c:	d503201f 	nop
    80202090:	d503201f 	nop
    80202094:	d503201f 	nop
    80202098:	d503201f 	nop
    8020209c:	d503201f 	nop
    802020a0:	d503201f 	nop
    802020a4:	d503201f 	nop
    802020a8:	d503201f 	nop
    802020ac:	d503201f 	nop
    802020b0:	d503201f 	nop
    802020b4:	d503201f 	nop
    802020b8:	d503201f 	nop
    802020bc:	d503201f 	nop
    802020c0:	d503201f 	nop
    802020c4:	d503201f 	nop
    802020c8:	d503201f 	nop
    802020cc:	d503201f 	nop
    802020d0:	d503201f 	nop
    802020d4:	d503201f 	nop
    802020d8:	d503201f 	nop
    802020dc:	d503201f 	nop
    802020e0:	d503201f 	nop
    802020e4:	d503201f 	nop
    802020e8:	d503201f 	nop
    802020ec:	d503201f 	nop
    802020f0:	d503201f 	nop
    802020f4:	d503201f 	nop
    802020f8:	d503201f 	nop
    802020fc:	d503201f 	nop

0000000080202100 <curr_el_sp0_fiq>:
.balign ENTRY_SIZE
curr_el_sp0_fiq:         
    b	.
    80202100:	14000000 	b	80202100 <curr_el_sp0_fiq>
    80202104:	d503201f 	nop
    80202108:	d503201f 	nop
    8020210c:	d503201f 	nop
    80202110:	d503201f 	nop
    80202114:	d503201f 	nop
    80202118:	d503201f 	nop
    8020211c:	d503201f 	nop
    80202120:	d503201f 	nop
    80202124:	d503201f 	nop
    80202128:	d503201f 	nop
    8020212c:	d503201f 	nop
    80202130:	d503201f 	nop
    80202134:	d503201f 	nop
    80202138:	d503201f 	nop
    8020213c:	d503201f 	nop
    80202140:	d503201f 	nop
    80202144:	d503201f 	nop
    80202148:	d503201f 	nop
    8020214c:	d503201f 	nop
    80202150:	d503201f 	nop
    80202154:	d503201f 	nop
    80202158:	d503201f 	nop
    8020215c:	d503201f 	nop
    80202160:	d503201f 	nop
    80202164:	d503201f 	nop
    80202168:	d503201f 	nop
    8020216c:	d503201f 	nop
    80202170:	d503201f 	nop
    80202174:	d503201f 	nop
    80202178:	d503201f 	nop
    8020217c:	d503201f 	nop

0000000080202180 <curr_el_sp0_serror>:
.balign ENTRY_SIZE
curr_el_sp0_serror:      
    b	.
    80202180:	14000000 	b	80202180 <curr_el_sp0_serror>
    80202184:	d503201f 	nop
    80202188:	d503201f 	nop
    8020218c:	d503201f 	nop
    80202190:	d503201f 	nop
    80202194:	d503201f 	nop
    80202198:	d503201f 	nop
    8020219c:	d503201f 	nop
    802021a0:	d503201f 	nop
    802021a4:	d503201f 	nop
    802021a8:	d503201f 	nop
    802021ac:	d503201f 	nop
    802021b0:	d503201f 	nop
    802021b4:	d503201f 	nop
    802021b8:	d503201f 	nop
    802021bc:	d503201f 	nop
    802021c0:	d503201f 	nop
    802021c4:	d503201f 	nop
    802021c8:	d503201f 	nop
    802021cc:	d503201f 	nop
    802021d0:	d503201f 	nop
    802021d4:	d503201f 	nop
    802021d8:	d503201f 	nop
    802021dc:	d503201f 	nop
    802021e0:	d503201f 	nop
    802021e4:	d503201f 	nop
    802021e8:	d503201f 	nop
    802021ec:	d503201f 	nop
    802021f0:	d503201f 	nop
    802021f4:	d503201f 	nop
    802021f8:	d503201f 	nop
    802021fc:	d503201f 	nop

0000000080202200 <curr_el_spx_sync>:
/* 
 * EL1 with SPx
 */  
.balign ENTRY_SIZE  
curr_el_spx_sync:        
    b	.
    80202200:	14000000 	b	80202200 <curr_el_spx_sync>
    80202204:	d503201f 	nop
    80202208:	d503201f 	nop
    8020220c:	d503201f 	nop
    80202210:	d503201f 	nop
    80202214:	d503201f 	nop
    80202218:	d503201f 	nop
    8020221c:	d503201f 	nop
    80202220:	d503201f 	nop
    80202224:	d503201f 	nop
    80202228:	d503201f 	nop
    8020222c:	d503201f 	nop
    80202230:	d503201f 	nop
    80202234:	d503201f 	nop
    80202238:	d503201f 	nop
    8020223c:	d503201f 	nop
    80202240:	d503201f 	nop
    80202244:	d503201f 	nop
    80202248:	d503201f 	nop
    8020224c:	d503201f 	nop
    80202250:	d503201f 	nop
    80202254:	d503201f 	nop
    80202258:	d503201f 	nop
    8020225c:	d503201f 	nop
    80202260:	d503201f 	nop
    80202264:	d503201f 	nop
    80202268:	d503201f 	nop
    8020226c:	d503201f 	nop
    80202270:	d503201f 	nop
    80202274:	d503201f 	nop
    80202278:	d503201f 	nop
    8020227c:	d503201f 	nop

0000000080202280 <curr_el_spx_irq>:
.balign ENTRY_SIZE
curr_el_spx_irq:       
    SAVE_REGS
    80202280:	d102c3ff 	sub	sp, sp, #0xb0
    80202284:	a90007e0 	stp	x0, x1, [sp]
    80202288:	a9010fe2 	stp	x2, x3, [sp, #16]
    8020228c:	a90217e4 	stp	x4, x5, [sp, #32]
    80202290:	a9031fe6 	stp	x6, x7, [sp, #48]
    80202294:	a90427e8 	stp	x8, x9, [sp, #64]
    80202298:	a9052fea 	stp	x10, x11, [sp, #80]
    8020229c:	a90637ec 	stp	x12, x13, [sp, #96]
    802022a0:	a9073fee 	stp	x14, x15, [sp, #112]
    802022a4:	a90847f0 	stp	x16, x17, [sp, #128]
    802022a8:	a9094ff2 	stp	x18, x19, [sp, #144]
    802022ac:	a90a7bfd 	stp	x29, x30, [sp, #160]
    bl	gic_handle
    802022b0:	97fffb10 	bl	80200ef0 <gic_handle>
    RESTORE_REGS
    802022b4:	a94007e0 	ldp	x0, x1, [sp]
    802022b8:	a9410fe2 	ldp	x2, x3, [sp, #16]
    802022bc:	a94217e4 	ldp	x4, x5, [sp, #32]
    802022c0:	a9431fe6 	ldp	x6, x7, [sp, #48]
    802022c4:	a94427e8 	ldp	x8, x9, [sp, #64]
    802022c8:	a9452fea 	ldp	x10, x11, [sp, #80]
    802022cc:	a94637ec 	ldp	x12, x13, [sp, #96]
    802022d0:	a9473fee 	ldp	x14, x15, [sp, #112]
    802022d4:	a94847f0 	ldp	x16, x17, [sp, #128]
    802022d8:	a9494ff2 	ldp	x18, x19, [sp, #144]
    802022dc:	a94a7bfd 	ldp	x29, x30, [sp, #160]
    802022e0:	9102c3ff 	add	sp, sp, #0xb0
    eret
    802022e4:	d69f03e0 	eret
    802022e8:	d503201f 	nop
    802022ec:	d503201f 	nop
    802022f0:	d503201f 	nop
    802022f4:	d503201f 	nop
    802022f8:	d503201f 	nop
    802022fc:	d503201f 	nop

0000000080202300 <curr_el_spx_fiq>:
.balign ENTRY_SIZE
curr_el_spx_fiq:         
    SAVE_REGS
    80202300:	d102c3ff 	sub	sp, sp, #0xb0
    80202304:	a90007e0 	stp	x0, x1, [sp]
    80202308:	a9010fe2 	stp	x2, x3, [sp, #16]
    8020230c:	a90217e4 	stp	x4, x5, [sp, #32]
    80202310:	a9031fe6 	stp	x6, x7, [sp, #48]
    80202314:	a90427e8 	stp	x8, x9, [sp, #64]
    80202318:	a9052fea 	stp	x10, x11, [sp, #80]
    8020231c:	a90637ec 	stp	x12, x13, [sp, #96]
    80202320:	a9073fee 	stp	x14, x15, [sp, #112]
    80202324:	a90847f0 	stp	x16, x17, [sp, #128]
    80202328:	a9094ff2 	stp	x18, x19, [sp, #144]
    8020232c:	a90a7bfd 	stp	x29, x30, [sp, #160]
    bl	gic_handle
    80202330:	97fffaf0 	bl	80200ef0 <gic_handle>
    RESTORE_REGS
    80202334:	a94007e0 	ldp	x0, x1, [sp]
    80202338:	a9410fe2 	ldp	x2, x3, [sp, #16]
    8020233c:	a94217e4 	ldp	x4, x5, [sp, #32]
    80202340:	a9431fe6 	ldp	x6, x7, [sp, #48]
    80202344:	a94427e8 	ldp	x8, x9, [sp, #64]
    80202348:	a9452fea 	ldp	x10, x11, [sp, #80]
    8020234c:	a94637ec 	ldp	x12, x13, [sp, #96]
    80202350:	a9473fee 	ldp	x14, x15, [sp, #112]
    80202354:	a94847f0 	ldp	x16, x17, [sp, #128]
    80202358:	a9494ff2 	ldp	x18, x19, [sp, #144]
    8020235c:	a94a7bfd 	ldp	x29, x30, [sp, #160]
    80202360:	9102c3ff 	add	sp, sp, #0xb0
    eret
    80202364:	d69f03e0 	eret
    80202368:	d503201f 	nop
    8020236c:	d503201f 	nop
    80202370:	d503201f 	nop
    80202374:	d503201f 	nop
    80202378:	d503201f 	nop
    8020237c:	d503201f 	nop

0000000080202380 <curr_el_spx_serror>:
.balign ENTRY_SIZE
curr_el_spx_serror:      
    b	.         
    80202380:	14000000 	b	80202380 <curr_el_spx_serror>
    80202384:	d503201f 	nop
    80202388:	d503201f 	nop
    8020238c:	d503201f 	nop
    80202390:	d503201f 	nop
    80202394:	d503201f 	nop
    80202398:	d503201f 	nop
    8020239c:	d503201f 	nop
    802023a0:	d503201f 	nop
    802023a4:	d503201f 	nop
    802023a8:	d503201f 	nop
    802023ac:	d503201f 	nop
    802023b0:	d503201f 	nop
    802023b4:	d503201f 	nop
    802023b8:	d503201f 	nop
    802023bc:	d503201f 	nop
    802023c0:	d503201f 	nop
    802023c4:	d503201f 	nop
    802023c8:	d503201f 	nop
    802023cc:	d503201f 	nop
    802023d0:	d503201f 	nop
    802023d4:	d503201f 	nop
    802023d8:	d503201f 	nop
    802023dc:	d503201f 	nop
    802023e0:	d503201f 	nop
    802023e4:	d503201f 	nop
    802023e8:	d503201f 	nop
    802023ec:	d503201f 	nop
    802023f0:	d503201f 	nop
    802023f4:	d503201f 	nop
    802023f8:	d503201f 	nop
    802023fc:	d503201f 	nop

0000000080202400 <lower_el_aarch64_sync>:
 * Lower EL using AArch64
 */  

.balign ENTRY_SIZE
lower_el_aarch64_sync:
    b .
    80202400:	14000000 	b	80202400 <lower_el_aarch64_sync>
    80202404:	d503201f 	nop
    80202408:	d503201f 	nop
    8020240c:	d503201f 	nop
    80202410:	d503201f 	nop
    80202414:	d503201f 	nop
    80202418:	d503201f 	nop
    8020241c:	d503201f 	nop
    80202420:	d503201f 	nop
    80202424:	d503201f 	nop
    80202428:	d503201f 	nop
    8020242c:	d503201f 	nop
    80202430:	d503201f 	nop
    80202434:	d503201f 	nop
    80202438:	d503201f 	nop
    8020243c:	d503201f 	nop
    80202440:	d503201f 	nop
    80202444:	d503201f 	nop
    80202448:	d503201f 	nop
    8020244c:	d503201f 	nop
    80202450:	d503201f 	nop
    80202454:	d503201f 	nop
    80202458:	d503201f 	nop
    8020245c:	d503201f 	nop
    80202460:	d503201f 	nop
    80202464:	d503201f 	nop
    80202468:	d503201f 	nop
    8020246c:	d503201f 	nop
    80202470:	d503201f 	nop
    80202474:	d503201f 	nop
    80202478:	d503201f 	nop
    8020247c:	d503201f 	nop

0000000080202480 <lower_el_aarch64_irq>:
.balign ENTRY_SIZE
lower_el_aarch64_irq:    
    b .
    80202480:	14000000 	b	80202480 <lower_el_aarch64_irq>
    80202484:	d503201f 	nop
    80202488:	d503201f 	nop
    8020248c:	d503201f 	nop
    80202490:	d503201f 	nop
    80202494:	d503201f 	nop
    80202498:	d503201f 	nop
    8020249c:	d503201f 	nop
    802024a0:	d503201f 	nop
    802024a4:	d503201f 	nop
    802024a8:	d503201f 	nop
    802024ac:	d503201f 	nop
    802024b0:	d503201f 	nop
    802024b4:	d503201f 	nop
    802024b8:	d503201f 	nop
    802024bc:	d503201f 	nop
    802024c0:	d503201f 	nop
    802024c4:	d503201f 	nop
    802024c8:	d503201f 	nop
    802024cc:	d503201f 	nop
    802024d0:	d503201f 	nop
    802024d4:	d503201f 	nop
    802024d8:	d503201f 	nop
    802024dc:	d503201f 	nop
    802024e0:	d503201f 	nop
    802024e4:	d503201f 	nop
    802024e8:	d503201f 	nop
    802024ec:	d503201f 	nop
    802024f0:	d503201f 	nop
    802024f4:	d503201f 	nop
    802024f8:	d503201f 	nop
    802024fc:	d503201f 	nop

0000000080202500 <lower_el_aarch64_fiq>:
.balign ENTRY_SIZE
lower_el_aarch64_fiq:    
    b	.
    80202500:	14000000 	b	80202500 <lower_el_aarch64_fiq>
    80202504:	d503201f 	nop
    80202508:	d503201f 	nop
    8020250c:	d503201f 	nop
    80202510:	d503201f 	nop
    80202514:	d503201f 	nop
    80202518:	d503201f 	nop
    8020251c:	d503201f 	nop
    80202520:	d503201f 	nop
    80202524:	d503201f 	nop
    80202528:	d503201f 	nop
    8020252c:	d503201f 	nop
    80202530:	d503201f 	nop
    80202534:	d503201f 	nop
    80202538:	d503201f 	nop
    8020253c:	d503201f 	nop
    80202540:	d503201f 	nop
    80202544:	d503201f 	nop
    80202548:	d503201f 	nop
    8020254c:	d503201f 	nop
    80202550:	d503201f 	nop
    80202554:	d503201f 	nop
    80202558:	d503201f 	nop
    8020255c:	d503201f 	nop
    80202560:	d503201f 	nop
    80202564:	d503201f 	nop
    80202568:	d503201f 	nop
    8020256c:	d503201f 	nop
    80202570:	d503201f 	nop
    80202574:	d503201f 	nop
    80202578:	d503201f 	nop
    8020257c:	d503201f 	nop

0000000080202580 <lower_el_aarch64_serror>:
.balign ENTRY_SIZE
lower_el_aarch64_serror: 
    b	.          
    80202580:	14000000 	b	80202580 <lower_el_aarch64_serror>
    80202584:	d503201f 	nop
    80202588:	d503201f 	nop
    8020258c:	d503201f 	nop
    80202590:	d503201f 	nop
    80202594:	d503201f 	nop
    80202598:	d503201f 	nop
    8020259c:	d503201f 	nop
    802025a0:	d503201f 	nop
    802025a4:	d503201f 	nop
    802025a8:	d503201f 	nop
    802025ac:	d503201f 	nop
    802025b0:	d503201f 	nop
    802025b4:	d503201f 	nop
    802025b8:	d503201f 	nop
    802025bc:	d503201f 	nop
    802025c0:	d503201f 	nop
    802025c4:	d503201f 	nop
    802025c8:	d503201f 	nop
    802025cc:	d503201f 	nop
    802025d0:	d503201f 	nop
    802025d4:	d503201f 	nop
    802025d8:	d503201f 	nop
    802025dc:	d503201f 	nop
    802025e0:	d503201f 	nop
    802025e4:	d503201f 	nop
    802025e8:	d503201f 	nop
    802025ec:	d503201f 	nop
    802025f0:	d503201f 	nop
    802025f4:	d503201f 	nop
    802025f8:	d503201f 	nop
    802025fc:	d503201f 	nop

0000000080202600 <lower_el_aarch32_sync>:
/* 
 * Lower EL using AArch32
 */  
.balign ENTRY_SIZE   
lower_el_aarch32_sync:   
    b	.
    80202600:	14000000 	b	80202600 <lower_el_aarch32_sync>
    80202604:	d503201f 	nop
    80202608:	d503201f 	nop
    8020260c:	d503201f 	nop
    80202610:	d503201f 	nop
    80202614:	d503201f 	nop
    80202618:	d503201f 	nop
    8020261c:	d503201f 	nop
    80202620:	d503201f 	nop
    80202624:	d503201f 	nop
    80202628:	d503201f 	nop
    8020262c:	d503201f 	nop
    80202630:	d503201f 	nop
    80202634:	d503201f 	nop
    80202638:	d503201f 	nop
    8020263c:	d503201f 	nop
    80202640:	d503201f 	nop
    80202644:	d503201f 	nop
    80202648:	d503201f 	nop
    8020264c:	d503201f 	nop
    80202650:	d503201f 	nop
    80202654:	d503201f 	nop
    80202658:	d503201f 	nop
    8020265c:	d503201f 	nop
    80202660:	d503201f 	nop
    80202664:	d503201f 	nop
    80202668:	d503201f 	nop
    8020266c:	d503201f 	nop
    80202670:	d503201f 	nop
    80202674:	d503201f 	nop
    80202678:	d503201f 	nop
    8020267c:	d503201f 	nop

0000000080202680 <lower_el_aarch32_irq>:
.balign ENTRY_SIZE
lower_el_aarch32_irq:    
    b	.
    80202680:	14000000 	b	80202680 <lower_el_aarch32_irq>
    80202684:	d503201f 	nop
    80202688:	d503201f 	nop
    8020268c:	d503201f 	nop
    80202690:	d503201f 	nop
    80202694:	d503201f 	nop
    80202698:	d503201f 	nop
    8020269c:	d503201f 	nop
    802026a0:	d503201f 	nop
    802026a4:	d503201f 	nop
    802026a8:	d503201f 	nop
    802026ac:	d503201f 	nop
    802026b0:	d503201f 	nop
    802026b4:	d503201f 	nop
    802026b8:	d503201f 	nop
    802026bc:	d503201f 	nop
    802026c0:	d503201f 	nop
    802026c4:	d503201f 	nop
    802026c8:	d503201f 	nop
    802026cc:	d503201f 	nop
    802026d0:	d503201f 	nop
    802026d4:	d503201f 	nop
    802026d8:	d503201f 	nop
    802026dc:	d503201f 	nop
    802026e0:	d503201f 	nop
    802026e4:	d503201f 	nop
    802026e8:	d503201f 	nop
    802026ec:	d503201f 	nop
    802026f0:	d503201f 	nop
    802026f4:	d503201f 	nop
    802026f8:	d503201f 	nop
    802026fc:	d503201f 	nop

0000000080202700 <lower_el_aarch32_fiq>:
.balign ENTRY_SIZE
lower_el_aarch32_fiq:    
    b	.
    80202700:	14000000 	b	80202700 <lower_el_aarch32_fiq>
    80202704:	d503201f 	nop
    80202708:	d503201f 	nop
    8020270c:	d503201f 	nop
    80202710:	d503201f 	nop
    80202714:	d503201f 	nop
    80202718:	d503201f 	nop
    8020271c:	d503201f 	nop
    80202720:	d503201f 	nop
    80202724:	d503201f 	nop
    80202728:	d503201f 	nop
    8020272c:	d503201f 	nop
    80202730:	d503201f 	nop
    80202734:	d503201f 	nop
    80202738:	d503201f 	nop
    8020273c:	d503201f 	nop
    80202740:	d503201f 	nop
    80202744:	d503201f 	nop
    80202748:	d503201f 	nop
    8020274c:	d503201f 	nop
    80202750:	d503201f 	nop
    80202754:	d503201f 	nop
    80202758:	d503201f 	nop
    8020275c:	d503201f 	nop
    80202760:	d503201f 	nop
    80202764:	d503201f 	nop
    80202768:	d503201f 	nop
    8020276c:	d503201f 	nop
    80202770:	d503201f 	nop
    80202774:	d503201f 	nop
    80202778:	d503201f 	nop
    8020277c:	d503201f 	nop

0000000080202780 <lower_el_aarch32_serror>:
.balign ENTRY_SIZE
lower_el_aarch32_serror: 
    b	.
    80202780:	14000000 	b	80202780 <lower_el_aarch32_serror>
    80202784:	d503201f 	nop
    80202788:	d503201f 	nop
    8020278c:	d503201f 	nop
    80202790:	d503201f 	nop
    80202794:	d503201f 	nop
    80202798:	d503201f 	nop
    8020279c:	d503201f 	nop
    802027a0:	d503201f 	nop
    802027a4:	d503201f 	nop
    802027a8:	d503201f 	nop
    802027ac:	d503201f 	nop
    802027b0:	d503201f 	nop
    802027b4:	d503201f 	nop
    802027b8:	d503201f 	nop
    802027bc:	d503201f 	nop
    802027c0:	d503201f 	nop
    802027c4:	d503201f 	nop
    802027c8:	d503201f 	nop
    802027cc:	d503201f 	nop
    802027d0:	d503201f 	nop
    802027d4:	d503201f 	nop
    802027d8:	d503201f 	nop
    802027dc:	d503201f 	nop
    802027e0:	d503201f 	nop
    802027e4:	d503201f 	nop
    802027e8:	d503201f 	nop
    802027ec:	d503201f 	nop
    802027f0:	d503201f 	nop
    802027f4:	d503201f 	nop
    802027f8:	d503201f 	nop
    802027fc:	d503201f 	nop

0000000080202800 <__errno>:
    80202800:	f0000060 	adrp	x0, 80211000 <__mprec_tens+0x180>
    80202804:	f9402400 	ldr	x0, [x0, #72]
    80202808:	d65f03c0 	ret
    8020280c:	00000000 	udf	#0

0000000080202810 <_printf_r>:
    80202810:	a9b07bfd 	stp	x29, x30, [sp, #-256]!
    80202814:	128005e9 	mov	w9, #0xffffffd0            	// #-48
    80202818:	12800fe8 	mov	w8, #0xffffff80            	// #-128
    8020281c:	910003fd 	mov	x29, sp
    80202820:	910343ea 	add	x10, sp, #0xd0
    80202824:	910403eb 	add	x11, sp, #0x100
    80202828:	a9032feb 	stp	x11, x11, [sp, #48]
    8020282c:	f90023ea 	str	x10, [sp, #64]
    80202830:	290923e9 	stp	w9, w8, [sp, #72]
    80202834:	3d8017e0 	str	q0, [sp, #80]
    80202838:	ad41c3e0 	ldp	q0, q16, [sp, #48]
    8020283c:	3d801be1 	str	q1, [sp, #96]
    80202840:	3d801fe2 	str	q2, [sp, #112]
    80202844:	3d8023e3 	str	q3, [sp, #128]
    80202848:	3d8027e4 	str	q4, [sp, #144]
    8020284c:	3d802be5 	str	q5, [sp, #160]
    80202850:	3d802fe6 	str	q6, [sp, #176]
    80202854:	3d8033e7 	str	q7, [sp, #192]
    80202858:	a90d0fe2 	stp	x2, x3, [sp, #208]
    8020285c:	aa0103e2 	mov	x2, x1
    80202860:	910043e3 	add	x3, sp, #0x10
    80202864:	a90e17e4 	stp	x4, x5, [sp, #224]
    80202868:	a90f1fe6 	stp	x6, x7, [sp, #240]
    8020286c:	ad00c3e0 	stp	q0, q16, [sp, #16]
    80202870:	f9400801 	ldr	x1, [x0, #16]
    80202874:	940003e3 	bl	80203800 <_vfprintf_r>
    80202878:	a8d07bfd 	ldp	x29, x30, [sp], #256
    8020287c:	d65f03c0 	ret

0000000080202880 <printf>:
    80202880:	a9af7bfd 	stp	x29, x30, [sp, #-272]!
    80202884:	128006eb 	mov	w11, #0xffffffc8            	// #-56
    80202888:	12800fea 	mov	w10, #0xffffff80            	// #-128
    8020288c:	910003fd 	mov	x29, sp
    80202890:	910343ec 	add	x12, sp, #0xd0
    80202894:	910443e8 	add	x8, sp, #0x110
    80202898:	f0000069 	adrp	x9, 80211000 <__mprec_tens+0x180>
    8020289c:	a90323e8 	stp	x8, x8, [sp, #48]
    802028a0:	aa0003e8 	mov	x8, x0
    802028a4:	f90023ec 	str	x12, [sp, #64]
    802028a8:	29092beb 	stp	w11, w10, [sp, #72]
    802028ac:	f9402520 	ldr	x0, [x9, #72]
    802028b0:	3d8017e0 	str	q0, [sp, #80]
    802028b4:	ad41c3e0 	ldp	q0, q16, [sp, #48]
    802028b8:	3d801be1 	str	q1, [sp, #96]
    802028bc:	3d801fe2 	str	q2, [sp, #112]
    802028c0:	3d8023e3 	str	q3, [sp, #128]
    802028c4:	3d8027e4 	str	q4, [sp, #144]
    802028c8:	3d802be5 	str	q5, [sp, #160]
    802028cc:	3d802fe6 	str	q6, [sp, #176]
    802028d0:	3d8033e7 	str	q7, [sp, #192]
    802028d4:	a90d8be1 	stp	x1, x2, [sp, #216]
    802028d8:	aa0803e2 	mov	x2, x8
    802028dc:	a90e93e3 	stp	x3, x4, [sp, #232]
    802028e0:	910043e3 	add	x3, sp, #0x10
    802028e4:	a90f9be5 	stp	x5, x6, [sp, #248]
    802028e8:	f90087e7 	str	x7, [sp, #264]
    802028ec:	ad00c3e0 	stp	q0, q16, [sp, #16]
    802028f0:	f9400801 	ldr	x1, [x0, #16]
    802028f4:	940003c3 	bl	80203800 <_vfprintf_r>
    802028f8:	a8d17bfd 	ldp	x29, x30, [sp], #272
    802028fc:	d65f03c0 	ret

0000000080202900 <_puts_r>:
    80202900:	a9ba7bfd 	stp	x29, x30, [sp, #-96]!
    80202904:	910003fd 	mov	x29, sp
    80202908:	a90153f3 	stp	x19, x20, [sp, #16]
    8020290c:	aa0003f4 	mov	x20, x0
    80202910:	aa0103f3 	mov	x19, x1
    80202914:	aa0103e0 	mov	x0, x1
    80202918:	940001fa 	bl	80203100 <strlen>
    8020291c:	f9402682 	ldr	x2, [x20, #72]
    80202920:	91000404 	add	x4, x0, #0x1
    80202924:	910103e6 	add	x6, sp, #0x40
    80202928:	d0000061 	adrp	x1, 80210000 <__trunctfdf2+0xc0>
    8020292c:	d2800023 	mov	x3, #0x1                   	// #1
    80202930:	91136021 	add	x1, x1, #0x4d8
    80202934:	52800045 	mov	w5, #0x2                   	// #2
    80202938:	f90017e6 	str	x6, [sp, #40]
    8020293c:	b90033e5 	str	w5, [sp, #48]
    80202940:	a903cfe4 	stp	x4, x19, [sp, #56]
    80202944:	a90487e0 	stp	x0, x1, [sp, #72]
    80202948:	f9002fe3 	str	x3, [sp, #88]
    8020294c:	f9400a93 	ldr	x19, [x20, #16]
    80202950:	b4000482 	cbz	x2, 802029e0 <_puts_r+0xe0>
    80202954:	b940b261 	ldr	w1, [x19, #176]
    80202958:	79c02260 	ldrsh	w0, [x19, #16]
    8020295c:	37000041 	tbnz	w1, #0, 80202964 <_puts_r+0x64>
    80202960:	36480380 	tbz	w0, #9, 802029d0 <_puts_r+0xd0>
    80202964:	376800c0 	tbnz	w0, #13, 8020297c <_puts_r+0x7c>
    80202968:	b940b261 	ldr	w1, [x19, #176]
    8020296c:	32130000 	orr	w0, w0, #0x2000
    80202970:	79002260 	strh	w0, [x19, #16]
    80202974:	12127820 	and	w0, w1, #0xffffdfff
    80202978:	b900b260 	str	w0, [x19, #176]
    8020297c:	aa1403e0 	mov	x0, x20
    80202980:	aa1303e1 	mov	x1, x19
    80202984:	9100a3e2 	add	x2, sp, #0x28
    80202988:	9400022a 	bl	80203230 <__sfvwrite_r>
    8020298c:	b940b261 	ldr	w1, [x19, #176]
    80202990:	7100001f 	cmp	w0, #0x0
    80202994:	52800154 	mov	w20, #0xa                   	// #10
    80202998:	5a9f0294 	csinv	w20, w20, wzr, eq	// eq = none
    8020299c:	37000061 	tbnz	w1, #0, 802029a8 <_puts_r+0xa8>
    802029a0:	79402260 	ldrh	w0, [x19, #16]
    802029a4:	364800a0 	tbz	w0, #9, 802029b8 <_puts_r+0xb8>
    802029a8:	2a1403e0 	mov	w0, w20
    802029ac:	a94153f3 	ldp	x19, x20, [sp, #16]
    802029b0:	a8c67bfd 	ldp	x29, x30, [sp], #96
    802029b4:	d65f03c0 	ret
    802029b8:	f9405260 	ldr	x0, [x19, #160]
    802029bc:	94001a91 	bl	80209400 <__retarget_lock_release_recursive>
    802029c0:	2a1403e0 	mov	w0, w20
    802029c4:	a94153f3 	ldp	x19, x20, [sp, #16]
    802029c8:	a8c67bfd 	ldp	x29, x30, [sp], #96
    802029cc:	d65f03c0 	ret
    802029d0:	f9405260 	ldr	x0, [x19, #160]
    802029d4:	94001a7b 	bl	802093c0 <__retarget_lock_acquire_recursive>
    802029d8:	79c02260 	ldrsh	w0, [x19, #16]
    802029dc:	17ffffe2 	b	80202964 <_puts_r+0x64>
    802029e0:	aa1403e0 	mov	x0, x20
    802029e4:	940000fb 	bl	80202dd0 <__sinit>
    802029e8:	17ffffdb 	b	80202954 <_puts_r+0x54>
    802029ec:	00000000 	udf	#0

00000000802029f0 <puts>:
    802029f0:	f0000062 	adrp	x2, 80211000 <__mprec_tens+0x180>
    802029f4:	aa0003e1 	mov	x1, x0
    802029f8:	f9402440 	ldr	x0, [x2, #72]
    802029fc:	17ffffc1 	b	80202900 <_puts_r>

0000000080202a00 <stdio_exit_handler>:
    80202a00:	f0000062 	adrp	x2, 80211000 <__mprec_tens+0x180>
    80202a04:	90000041 	adrp	x1, 8020a000 <_setlocale_r+0x310>
    80202a08:	9106a042 	add	x2, x2, #0x1a8
    80202a0c:	91040021 	add	x1, x1, #0x100
    80202a10:	f0000060 	adrp	x0, 80211000 <__mprec_tens+0x180>
    80202a14:	91014000 	add	x0, x0, #0x50
    80202a18:	1400033a 	b	80203700 <_fwalk_sglue>
    80202a1c:	00000000 	udf	#0

0000000080202a20 <cleanup_stdio>:
    80202a20:	a9be7bfd 	stp	x29, x30, [sp, #-32]!
    80202a24:	d00003e2 	adrp	x2, 80280000 <gits_lock>
    80202a28:	91004042 	add	x2, x2, #0x10
    80202a2c:	910003fd 	mov	x29, sp
    80202a30:	f9400401 	ldr	x1, [x0, #8]
    80202a34:	f9000bf3 	str	x19, [sp, #16]
    80202a38:	aa0003f3 	mov	x19, x0
    80202a3c:	eb02003f 	cmp	x1, x2
    80202a40:	54000040 	b.eq	80202a48 <cleanup_stdio+0x28>  // b.none
    80202a44:	94001daf 	bl	8020a100 <_fclose_r>
    80202a48:	f9400a61 	ldr	x1, [x19, #16]
    80202a4c:	d00003e0 	adrp	x0, 80280000 <gits_lock>
    80202a50:	91032000 	add	x0, x0, #0xc8
    80202a54:	eb00003f 	cmp	x1, x0
    80202a58:	54000060 	b.eq	80202a64 <cleanup_stdio+0x44>  // b.none
    80202a5c:	aa1303e0 	mov	x0, x19
    80202a60:	94001da8 	bl	8020a100 <_fclose_r>
    80202a64:	f9400e61 	ldr	x1, [x19, #24]
    80202a68:	d00003e0 	adrp	x0, 80280000 <gits_lock>
    80202a6c:	91060000 	add	x0, x0, #0x180
    80202a70:	eb00003f 	cmp	x1, x0
    80202a74:	540000a0 	b.eq	80202a88 <cleanup_stdio+0x68>  // b.none
    80202a78:	aa1303e0 	mov	x0, x19
    80202a7c:	f9400bf3 	ldr	x19, [sp, #16]
    80202a80:	a8c27bfd 	ldp	x29, x30, [sp], #32
    80202a84:	14001d9f 	b	8020a100 <_fclose_r>
    80202a88:	f9400bf3 	ldr	x19, [sp, #16]
    80202a8c:	a8c27bfd 	ldp	x29, x30, [sp], #32
    80202a90:	d65f03c0 	ret
	...

0000000080202aa0 <__fp_lock>:
    80202aa0:	b940b020 	ldr	w0, [x1, #176]
    80202aa4:	37000060 	tbnz	w0, #0, 80202ab0 <__fp_lock+0x10>
    80202aa8:	79402020 	ldrh	w0, [x1, #16]
    80202aac:	36480060 	tbz	w0, #9, 80202ab8 <__fp_lock+0x18>
    80202ab0:	52800000 	mov	w0, #0x0                   	// #0
    80202ab4:	d65f03c0 	ret
    80202ab8:	a9bf7bfd 	stp	x29, x30, [sp, #-16]!
    80202abc:	910003fd 	mov	x29, sp
    80202ac0:	f9405020 	ldr	x0, [x1, #160]
    80202ac4:	94001a3f 	bl	802093c0 <__retarget_lock_acquire_recursive>
    80202ac8:	52800000 	mov	w0, #0x0                   	// #0
    80202acc:	a8c17bfd 	ldp	x29, x30, [sp], #16
    80202ad0:	d65f03c0 	ret
	...

0000000080202ae0 <__fp_unlock>:
    80202ae0:	b940b020 	ldr	w0, [x1, #176]
    80202ae4:	37000060 	tbnz	w0, #0, 80202af0 <__fp_unlock+0x10>
    80202ae8:	79402020 	ldrh	w0, [x1, #16]
    80202aec:	36480060 	tbz	w0, #9, 80202af8 <__fp_unlock+0x18>
    80202af0:	52800000 	mov	w0, #0x0                   	// #0
    80202af4:	d65f03c0 	ret
    80202af8:	a9bf7bfd 	stp	x29, x30, [sp, #-16]!
    80202afc:	910003fd 	mov	x29, sp
    80202b00:	f9405020 	ldr	x0, [x1, #160]
    80202b04:	94001a3f 	bl	80209400 <__retarget_lock_release_recursive>
    80202b08:	52800000 	mov	w0, #0x0                   	// #0
    80202b0c:	a8c17bfd 	ldp	x29, x30, [sp], #16
    80202b10:	d65f03c0 	ret
	...

0000000080202b20 <global_stdio_init.part.0>:
    80202b20:	a9bc7bfd 	stp	x29, x30, [sp, #-64]!
    80202b24:	d00003e0 	adrp	x0, 80280000 <gits_lock>
    80202b28:	d00003e2 	adrp	x2, 80280000 <gits_lock>
    80202b2c:	910003fd 	mov	x29, sp
    80202b30:	a90153f3 	stp	x19, x20, [sp, #16]
    80202b34:	91004013 	add	x19, x0, #0x10
    80202b38:	52800083 	mov	w3, #0x4                   	// #4
    80202b3c:	90000001 	adrp	x1, 80202000 <_exception_vector>
    80202b40:	91280021 	add	x1, x1, #0xa00
    80202b44:	f9011c41 	str	x1, [x2, #568]
    80202b48:	d2800102 	mov	x2, #0x8                   	// #8
    80202b4c:	52800001 	mov	w1, #0x0                   	// #0
    80202b50:	a9025bf5 	stp	x21, x22, [sp, #32]
    80202b54:	b0000014 	adrp	x20, 80203000 <__sread+0x30>
    80202b58:	f9001bf7 	str	x23, [sp, #48]
    80202b5c:	9103c294 	add	x20, x20, #0xf0
    80202b60:	f900081f 	str	xzr, [x0, #16]
    80202b64:	d00003e0 	adrp	x0, 80280000 <gits_lock>
    80202b68:	9102e000 	add	x0, x0, #0xb8
    80202b6c:	f900067f 	str	xzr, [x19, #8]
    80202b70:	b9001263 	str	w3, [x19, #16]
    80202b74:	b0000016 	adrp	x22, 80203000 <__sread+0x30>
    80202b78:	f9000e7f 	str	xzr, [x19, #24]
    80202b7c:	9100c2d6 	add	x22, x22, #0x30
    80202b80:	b900227f 	str	wzr, [x19, #32]
    80202b84:	b0000015 	adrp	x21, 80203000 <__sread+0x30>
    80202b88:	b9002a7f 	str	wzr, [x19, #40]
    80202b8c:	910282b5 	add	x21, x21, #0xa0
    80202b90:	b900b27f 	str	wzr, [x19, #176]
    80202b94:	940000cb 	bl	80202ec0 <memset>
    80202b98:	90000017 	adrp	x23, 80202000 <_exception_vector>
    80202b9c:	d00003e0 	adrp	x0, 80280000 <gits_lock>
    80202ba0:	913f42f7 	add	x23, x23, #0xfd0
    80202ba4:	9102c000 	add	x0, x0, #0xb0
    80202ba8:	a9035e73 	stp	x19, x23, [x19, #48]
    80202bac:	a9045676 	stp	x22, x21, [x19, #64]
    80202bb0:	f9002a74 	str	x20, [x19, #80]
    80202bb4:	940019f3 	bl	80209380 <__retarget_lock_init_recursive>
    80202bb8:	52800123 	mov	w3, #0x9                   	// #9
    80202bbc:	d2800102 	mov	x2, #0x8                   	// #8
    80202bc0:	72a00023 	movk	w3, #0x1, lsl #16
    80202bc4:	52800001 	mov	w1, #0x0                   	// #0
    80202bc8:	d00003e0 	adrp	x0, 80280000 <gits_lock>
    80202bcc:	9105c000 	add	x0, x0, #0x170
    80202bd0:	f9005e7f 	str	xzr, [x19, #184]
    80202bd4:	f900627f 	str	xzr, [x19, #192]
    80202bd8:	b900ca63 	str	w3, [x19, #200]
    80202bdc:	f9006a7f 	str	xzr, [x19, #208]
    80202be0:	b900da7f 	str	wzr, [x19, #216]
    80202be4:	b900e27f 	str	wzr, [x19, #224]
    80202be8:	b9016a7f 	str	wzr, [x19, #360]
    80202bec:	940000b5 	bl	80202ec0 <memset>
    80202bf0:	d00003e1 	adrp	x1, 80280000 <gits_lock>
    80202bf4:	91032021 	add	x1, x1, #0xc8
    80202bf8:	d00003e0 	adrp	x0, 80280000 <gits_lock>
    80202bfc:	9105a000 	add	x0, x0, #0x168
    80202c00:	a90ede61 	stp	x1, x23, [x19, #232]
    80202c04:	a90fd676 	stp	x22, x21, [x19, #248]
    80202c08:	f9008674 	str	x20, [x19, #264]
    80202c0c:	940019dd 	bl	80209380 <__retarget_lock_init_recursive>
    80202c10:	52800243 	mov	w3, #0x12                  	// #18
    80202c14:	d2800102 	mov	x2, #0x8                   	// #8
    80202c18:	72a00043 	movk	w3, #0x2, lsl #16
    80202c1c:	52800001 	mov	w1, #0x0                   	// #0
    80202c20:	d00003e0 	adrp	x0, 80280000 <gits_lock>
    80202c24:	9108a000 	add	x0, x0, #0x228
    80202c28:	f900ba7f 	str	xzr, [x19, #368]
    80202c2c:	f900be7f 	str	xzr, [x19, #376]
    80202c30:	b9018263 	str	w3, [x19, #384]
    80202c34:	f900c67f 	str	xzr, [x19, #392]
    80202c38:	b901927f 	str	wzr, [x19, #400]
    80202c3c:	b9019a7f 	str	wzr, [x19, #408]
    80202c40:	b902227f 	str	wzr, [x19, #544]
    80202c44:	9400009f 	bl	80202ec0 <memset>
    80202c48:	d00003e1 	adrp	x1, 80280000 <gits_lock>
    80202c4c:	91060021 	add	x1, x1, #0x180
    80202c50:	a91a5e61 	stp	x1, x23, [x19, #416]
    80202c54:	d00003e0 	adrp	x0, 80280000 <gits_lock>
    80202c58:	91088000 	add	x0, x0, #0x220
    80202c5c:	a91b5676 	stp	x22, x21, [x19, #432]
    80202c60:	f900e274 	str	x20, [x19, #448]
    80202c64:	a94153f3 	ldp	x19, x20, [sp, #16]
    80202c68:	a9425bf5 	ldp	x21, x22, [sp, #32]
    80202c6c:	f9401bf7 	ldr	x23, [sp, #48]
    80202c70:	a8c47bfd 	ldp	x29, x30, [sp], #64
    80202c74:	140019c3 	b	80209380 <__retarget_lock_init_recursive>
	...

0000000080202c80 <__sfp>:
    80202c80:	a9bc7bfd 	stp	x29, x30, [sp, #-64]!
    80202c84:	910003fd 	mov	x29, sp
    80202c88:	a9025bf5 	stp	x21, x22, [sp, #32]
    80202c8c:	d00003f5 	adrp	x21, 80280000 <gits_lock>
    80202c90:	910ae2b5 	add	x21, x21, #0x2b8
    80202c94:	aa0003f6 	mov	x22, x0
    80202c98:	aa1503e0 	mov	x0, x21
    80202c9c:	a90153f3 	stp	x19, x20, [sp, #16]
    80202ca0:	f9001bf7 	str	x23, [sp, #48]
    80202ca4:	940019c7 	bl	802093c0 <__retarget_lock_acquire_recursive>
    80202ca8:	d00003e0 	adrp	x0, 80280000 <gits_lock>
    80202cac:	f9411c00 	ldr	x0, [x0, #568]
    80202cb0:	b40007a0 	cbz	x0, 80202da4 <__sfp+0x124>
    80202cb4:	f0000074 	adrp	x20, 80211000 <__mprec_tens+0x180>
    80202cb8:	9106a294 	add	x20, x20, #0x1a8
    80202cbc:	52801717 	mov	w23, #0xb8                  	// #184
    80202cc0:	b9400a82 	ldr	w2, [x20, #8]
    80202cc4:	f9400a93 	ldr	x19, [x20, #16]
    80202cc8:	7100005f 	cmp	w2, #0x0
    80202ccc:	5400044d 	b.le	80202d54 <__sfp+0xd4>
    80202cd0:	9bb74c42 	umaddl	x2, w2, w23, x19
    80202cd4:	14000004 	b	80202ce4 <__sfp+0x64>
    80202cd8:	9102e273 	add	x19, x19, #0xb8
    80202cdc:	eb13005f 	cmp	x2, x19
    80202ce0:	540003a0 	b.eq	80202d54 <__sfp+0xd4>  // b.none
    80202ce4:	79c02261 	ldrsh	w1, [x19, #16]
    80202ce8:	35ffff81 	cbnz	w1, 80202cd8 <__sfp+0x58>
    80202cec:	129fffc0 	mov	w0, #0xffff0001            	// #-65535
    80202cf0:	b9001260 	str	w0, [x19, #16]
    80202cf4:	b900b27f 	str	wzr, [x19, #176]
    80202cf8:	91028260 	add	x0, x19, #0xa0
    80202cfc:	940019a1 	bl	80209380 <__retarget_lock_init_recursive>
    80202d00:	aa1503e0 	mov	x0, x21
    80202d04:	940019bf 	bl	80209400 <__retarget_lock_release_recursive>
    80202d08:	f900027f 	str	xzr, [x19]
    80202d0c:	9102a260 	add	x0, x19, #0xa8
    80202d10:	f900067f 	str	xzr, [x19, #8]
    80202d14:	d2800102 	mov	x2, #0x8                   	// #8
    80202d18:	f9000e7f 	str	xzr, [x19, #24]
    80202d1c:	52800001 	mov	w1, #0x0                   	// #0
    80202d20:	b900227f 	str	wzr, [x19, #32]
    80202d24:	b9002a7f 	str	wzr, [x19, #40]
    80202d28:	94000066 	bl	80202ec0 <memset>
    80202d2c:	f9002e7f 	str	xzr, [x19, #88]
    80202d30:	b900627f 	str	wzr, [x19, #96]
    80202d34:	f9003e7f 	str	xzr, [x19, #120]
    80202d38:	b900827f 	str	wzr, [x19, #128]
    80202d3c:	a9425bf5 	ldp	x21, x22, [sp, #32]
    80202d40:	aa1303e0 	mov	x0, x19
    80202d44:	a94153f3 	ldp	x19, x20, [sp, #16]
    80202d48:	f9401bf7 	ldr	x23, [sp, #48]
    80202d4c:	a8c47bfd 	ldp	x29, x30, [sp], #64
    80202d50:	d65f03c0 	ret
    80202d54:	f9400293 	ldr	x19, [x20]
    80202d58:	b4000073 	cbz	x19, 80202d64 <__sfp+0xe4>
    80202d5c:	aa1303f4 	mov	x20, x19
    80202d60:	17ffffd8 	b	80202cc0 <__sfp+0x40>
    80202d64:	aa1603e0 	mov	x0, x22
    80202d68:	d2805f01 	mov	x1, #0x2f8                 	// #760
    80202d6c:	94001735 	bl	80208a40 <_malloc_r>
    80202d70:	aa0003f3 	mov	x19, x0
    80202d74:	b40001c0 	cbz	x0, 80202dac <__sfp+0x12c>
    80202d78:	91006000 	add	x0, x0, #0x18
    80202d7c:	52800081 	mov	w1, #0x4                   	// #4
    80202d80:	f900027f 	str	xzr, [x19]
    80202d84:	d2805c02 	mov	x2, #0x2e0                 	// #736
    80202d88:	b9000a61 	str	w1, [x19, #8]
    80202d8c:	52800001 	mov	w1, #0x0                   	// #0
    80202d90:	f9000a60 	str	x0, [x19, #16]
    80202d94:	9400004b 	bl	80202ec0 <memset>
    80202d98:	f9000293 	str	x19, [x20]
    80202d9c:	aa1303f4 	mov	x20, x19
    80202da0:	17ffffc8 	b	80202cc0 <__sfp+0x40>
    80202da4:	97ffff5f 	bl	80202b20 <global_stdio_init.part.0>
    80202da8:	17ffffc3 	b	80202cb4 <__sfp+0x34>
    80202dac:	f900029f 	str	xzr, [x20]
    80202db0:	aa1503e0 	mov	x0, x21
    80202db4:	94001993 	bl	80209400 <__retarget_lock_release_recursive>
    80202db8:	52800180 	mov	w0, #0xc                   	// #12
    80202dbc:	b90002c0 	str	w0, [x22]
    80202dc0:	17ffffdf 	b	80202d3c <__sfp+0xbc>
	...

0000000080202dd0 <__sinit>:
    80202dd0:	a9be7bfd 	stp	x29, x30, [sp, #-32]!
    80202dd4:	910003fd 	mov	x29, sp
    80202dd8:	a90153f3 	stp	x19, x20, [sp, #16]
    80202ddc:	aa0003f4 	mov	x20, x0
    80202de0:	d00003f3 	adrp	x19, 80280000 <gits_lock>
    80202de4:	910ae273 	add	x19, x19, #0x2b8
    80202de8:	aa1303e0 	mov	x0, x19
    80202dec:	94001975 	bl	802093c0 <__retarget_lock_acquire_recursive>
    80202df0:	f9402680 	ldr	x0, [x20, #72]
    80202df4:	b50000e0 	cbnz	x0, 80202e10 <__sinit+0x40>
    80202df8:	d00003e1 	adrp	x1, 80280000 <gits_lock>
    80202dfc:	90000000 	adrp	x0, 80202000 <_exception_vector>
    80202e00:	91288000 	add	x0, x0, #0xa20
    80202e04:	f9002680 	str	x0, [x20, #72]
    80202e08:	f9411c20 	ldr	x0, [x1, #568]
    80202e0c:	b40000a0 	cbz	x0, 80202e20 <__sinit+0x50>
    80202e10:	aa1303e0 	mov	x0, x19
    80202e14:	a94153f3 	ldp	x19, x20, [sp, #16]
    80202e18:	a8c27bfd 	ldp	x29, x30, [sp], #32
    80202e1c:	14001979 	b	80209400 <__retarget_lock_release_recursive>
    80202e20:	97ffff40 	bl	80202b20 <global_stdio_init.part.0>
    80202e24:	aa1303e0 	mov	x0, x19
    80202e28:	a94153f3 	ldp	x19, x20, [sp, #16]
    80202e2c:	a8c27bfd 	ldp	x29, x30, [sp], #32
    80202e30:	14001974 	b	80209400 <__retarget_lock_release_recursive>
	...

0000000080202e40 <__sfp_lock_acquire>:
    80202e40:	d00003e0 	adrp	x0, 80280000 <gits_lock>
    80202e44:	910ae000 	add	x0, x0, #0x2b8
    80202e48:	1400195e 	b	802093c0 <__retarget_lock_acquire_recursive>
    80202e4c:	00000000 	udf	#0

0000000080202e50 <__sfp_lock_release>:
    80202e50:	d00003e0 	adrp	x0, 80280000 <gits_lock>
    80202e54:	910ae000 	add	x0, x0, #0x2b8
    80202e58:	1400196a 	b	80209400 <__retarget_lock_release_recursive>
    80202e5c:	00000000 	udf	#0

0000000080202e60 <__fp_lock_all>:
    80202e60:	a9bf7bfd 	stp	x29, x30, [sp, #-16]!
    80202e64:	d00003e0 	adrp	x0, 80280000 <gits_lock>
    80202e68:	910ae000 	add	x0, x0, #0x2b8
    80202e6c:	910003fd 	mov	x29, sp
    80202e70:	94001954 	bl	802093c0 <__retarget_lock_acquire_recursive>
    80202e74:	a8c17bfd 	ldp	x29, x30, [sp], #16
    80202e78:	f0000062 	adrp	x2, 80211000 <__mprec_tens+0x180>
    80202e7c:	90000001 	adrp	x1, 80202000 <_exception_vector>
    80202e80:	9106a042 	add	x2, x2, #0x1a8
    80202e84:	912a8021 	add	x1, x1, #0xaa0
    80202e88:	d2800000 	mov	x0, #0x0                   	// #0
    80202e8c:	1400021d 	b	80203700 <_fwalk_sglue>

0000000080202e90 <__fp_unlock_all>:
    80202e90:	a9bf7bfd 	stp	x29, x30, [sp, #-16]!
    80202e94:	f0000062 	adrp	x2, 80211000 <__mprec_tens+0x180>
    80202e98:	90000001 	adrp	x1, 80202000 <_exception_vector>
    80202e9c:	910003fd 	mov	x29, sp
    80202ea0:	9106a042 	add	x2, x2, #0x1a8
    80202ea4:	912b8021 	add	x1, x1, #0xae0
    80202ea8:	d2800000 	mov	x0, #0x0                   	// #0
    80202eac:	94000215 	bl	80203700 <_fwalk_sglue>
    80202eb0:	a8c17bfd 	ldp	x29, x30, [sp], #16
    80202eb4:	d00003e0 	adrp	x0, 80280000 <gits_lock>
    80202eb8:	910ae000 	add	x0, x0, #0x2b8
    80202ebc:	14001951 	b	80209400 <__retarget_lock_release_recursive>

0000000080202ec0 <memset>:
    80202ec0:	d503245f 	bti	c
    80202ec4:	4e010c20 	dup	v0.16b, w1
    80202ec8:	8b020004 	add	x4, x0, x2
    80202ecc:	f101805f 	cmp	x2, #0x60
    80202ed0:	54000388 	b.hi	80202f40 <memset+0x80>  // b.pmore
    80202ed4:	f100405f 	cmp	x2, #0x10
    80202ed8:	540001e2 	b.cs	80202f14 <memset+0x54>  // b.hs, b.nlast
    80202edc:	4e083c01 	mov	x1, v0.d[0]
    80202ee0:	36180082 	tbz	w2, #3, 80202ef0 <memset+0x30>
    80202ee4:	f9000001 	str	x1, [x0]
    80202ee8:	f81f8081 	stur	x1, [x4, #-8]
    80202eec:	d65f03c0 	ret
    80202ef0:	36100082 	tbz	w2, #2, 80202f00 <memset+0x40>
    80202ef4:	b9000001 	str	w1, [x0]
    80202ef8:	b81fc081 	stur	w1, [x4, #-4]
    80202efc:	d65f03c0 	ret
    80202f00:	b4000082 	cbz	x2, 80202f10 <memset+0x50>
    80202f04:	39000001 	strb	w1, [x0]
    80202f08:	36080042 	tbz	w2, #1, 80202f10 <memset+0x50>
    80202f0c:	781fe081 	sturh	w1, [x4, #-2]
    80202f10:	d65f03c0 	ret
    80202f14:	3d800000 	str	q0, [x0]
    80202f18:	373000c2 	tbnz	w2, #6, 80202f30 <memset+0x70>
    80202f1c:	3c9f0080 	stur	q0, [x4, #-16]
    80202f20:	36280062 	tbz	w2, #5, 80202f2c <memset+0x6c>
    80202f24:	3d800400 	str	q0, [x0, #16]
    80202f28:	3c9e0080 	stur	q0, [x4, #-32]
    80202f2c:	d65f03c0 	ret
    80202f30:	3d800400 	str	q0, [x0, #16]
    80202f34:	ad010000 	stp	q0, q0, [x0, #32]
    80202f38:	ad3f0080 	stp	q0, q0, [x4, #-32]
    80202f3c:	d65f03c0 	ret
    80202f40:	12001c21 	and	w1, w1, #0xff
    80202f44:	927cec03 	and	x3, x0, #0xfffffffffffffff0
    80202f48:	3d800000 	str	q0, [x0]
    80202f4c:	f102805f 	cmp	x2, #0xa0
    80202f50:	7a402820 	ccmp	w1, #0x0, #0x0, cs	// cs = hs, nlast
    80202f54:	54000241 	b.ne	80202f9c <memset+0xdc>  // b.any
    80202f58:	d53b00e5 	mrs	x5, dczid_el0
    80202f5c:	924010a5 	and	x5, x5, #0x1f
    80202f60:	f10010bf 	cmp	x5, #0x4
    80202f64:	540001c1 	b.ne	80202f9c <memset+0xdc>  // b.any
    80202f68:	3d800460 	str	q0, [x3, #16]
    80202f6c:	ad010060 	stp	q0, q0, [x3, #32]
    80202f70:	927ae463 	and	x3, x3, #0xffffffffffffffc0
    80202f74:	cb030082 	sub	x2, x4, x3
    80202f78:	d1020042 	sub	x2, x2, #0x80
    80202f7c:	d503201f 	nop
    80202f80:	91010063 	add	x3, x3, #0x40
    80202f84:	d50b7423 	dc	zva, x3
    80202f88:	f1010042 	subs	x2, x2, #0x40
    80202f8c:	54ffffa8 	b.hi	80202f80 <memset+0xc0>  // b.pmore
    80202f90:	ad3e0080 	stp	q0, q0, [x4, #-64]
    80202f94:	ad3f0080 	stp	q0, q0, [x4, #-32]
    80202f98:	d65f03c0 	ret
    80202f9c:	cb030082 	sub	x2, x4, x3
    80202fa0:	d1004063 	sub	x3, x3, #0x10
    80202fa4:	d1014042 	sub	x2, x2, #0x50
    80202fa8:	ad010060 	stp	q0, q0, [x3, #32]
    80202fac:	ad820060 	stp	q0, q0, [x3, #64]!
    80202fb0:	f1010042 	subs	x2, x2, #0x40
    80202fb4:	54ffffa8 	b.hi	80202fa8 <memset+0xe8>  // b.pmore
    80202fb8:	ad3e0080 	stp	q0, q0, [x4, #-64]
    80202fbc:	ad3f0080 	stp	q0, q0, [x4, #-32]
    80202fc0:	d65f03c0 	ret
	...

0000000080202fd0 <__sread>:
    80202fd0:	a9be7bfd 	stp	x29, x30, [sp, #-32]!
    80202fd4:	93407c63 	sxtw	x3, w3
    80202fd8:	910003fd 	mov	x29, sp
    80202fdc:	f9000bf3 	str	x19, [sp, #16]
    80202fe0:	aa0103f3 	mov	x19, x1
    80202fe4:	79c02421 	ldrsh	w1, [x1, #18]
    80202fe8:	94002822 	bl	8020d070 <_read_r>
    80202fec:	b7f800e0 	tbnz	x0, #63, 80203008 <__sread+0x38>
    80202ff0:	f9404a61 	ldr	x1, [x19, #144]
    80202ff4:	8b000021 	add	x1, x1, x0
    80202ff8:	f9004a61 	str	x1, [x19, #144]
    80202ffc:	f9400bf3 	ldr	x19, [sp, #16]
    80203000:	a8c27bfd 	ldp	x29, x30, [sp], #32
    80203004:	d65f03c0 	ret
    80203008:	79402261 	ldrh	w1, [x19, #16]
    8020300c:	12137821 	and	w1, w1, #0xffffefff
    80203010:	79002261 	strh	w1, [x19, #16]
    80203014:	f9400bf3 	ldr	x19, [sp, #16]
    80203018:	a8c27bfd 	ldp	x29, x30, [sp], #32
    8020301c:	d65f03c0 	ret

0000000080203020 <__seofread>:
    80203020:	52800000 	mov	w0, #0x0                   	// #0
    80203024:	d65f03c0 	ret
	...

0000000080203030 <__swrite>:
    80203030:	a9bd7bfd 	stp	x29, x30, [sp, #-48]!
    80203034:	910003fd 	mov	x29, sp
    80203038:	79c02024 	ldrsh	w4, [x1, #16]
    8020303c:	a90153f3 	stp	x19, x20, [sp, #16]
    80203040:	aa0103f3 	mov	x19, x1
    80203044:	aa0003f4 	mov	x20, x0
    80203048:	a9025bf5 	stp	x21, x22, [sp, #32]
    8020304c:	aa0203f5 	mov	x21, x2
    80203050:	2a0303f6 	mov	w22, w3
    80203054:	37400184 	tbnz	w4, #8, 80203084 <__swrite+0x54>
    80203058:	79c02661 	ldrsh	w1, [x19, #18]
    8020305c:	12137884 	and	w4, w4, #0xffffefff
    80203060:	79002264 	strh	w4, [x19, #16]
    80203064:	93407ec3 	sxtw	x3, w22
    80203068:	aa1503e2 	mov	x2, x21
    8020306c:	aa1403e0 	mov	x0, x20
    80203070:	940001cc 	bl	802037a0 <_write_r>
    80203074:	a94153f3 	ldp	x19, x20, [sp, #16]
    80203078:	a9425bf5 	ldp	x21, x22, [sp, #32]
    8020307c:	a8c37bfd 	ldp	x29, x30, [sp], #48
    80203080:	d65f03c0 	ret
    80203084:	79c02421 	ldrsh	w1, [x1, #18]
    80203088:	52800043 	mov	w3, #0x2                   	// #2
    8020308c:	d2800002 	mov	x2, #0x0                   	// #0
    80203090:	940027e0 	bl	8020d010 <_lseek_r>
    80203094:	79c02264 	ldrsh	w4, [x19, #16]
    80203098:	17fffff0 	b	80203058 <__swrite+0x28>
    8020309c:	00000000 	udf	#0

00000000802030a0 <__sseek>:
    802030a0:	a9be7bfd 	stp	x29, x30, [sp, #-32]!
    802030a4:	910003fd 	mov	x29, sp
    802030a8:	f9000bf3 	str	x19, [sp, #16]
    802030ac:	aa0103f3 	mov	x19, x1
    802030b0:	79c02421 	ldrsh	w1, [x1, #18]
    802030b4:	940027d7 	bl	8020d010 <_lseek_r>
    802030b8:	79c02261 	ldrsh	w1, [x19, #16]
    802030bc:	b100041f 	cmn	x0, #0x1
    802030c0:	540000e0 	b.eq	802030dc <__sseek+0x3c>  // b.none
    802030c4:	32140021 	orr	w1, w1, #0x1000
    802030c8:	79002261 	strh	w1, [x19, #16]
    802030cc:	f9004a60 	str	x0, [x19, #144]
    802030d0:	f9400bf3 	ldr	x19, [sp, #16]
    802030d4:	a8c27bfd 	ldp	x29, x30, [sp], #32
    802030d8:	d65f03c0 	ret
    802030dc:	12137821 	and	w1, w1, #0xffffefff
    802030e0:	79002261 	strh	w1, [x19, #16]
    802030e4:	f9400bf3 	ldr	x19, [sp, #16]
    802030e8:	a8c27bfd 	ldp	x29, x30, [sp], #32
    802030ec:	d65f03c0 	ret

00000000802030f0 <__sclose>:
    802030f0:	79c02421 	ldrsh	w1, [x1, #18]
    802030f4:	140022df 	b	8020bc70 <_close_r>
	...

0000000080203100 <strlen>:
    80203100:	d503245f 	bti	c
    80203104:	92402c04 	and	x4, x0, #0xfff
    80203108:	f13f809f 	cmp	x4, #0xfe0
    8020310c:	540006c8 	b.hi	802031e4 <strlen+0xe4>  // b.pmore
    80203110:	a9400c02 	ldp	x2, x3, [x0]
    80203114:	b200c3e8 	mov	x8, #0x101010101010101     	// #72340172838076673
    80203118:	cb080044 	sub	x4, x2, x8
    8020311c:	b200d845 	orr	x5, x2, #0x7f7f7f7f7f7f7f7f
    80203120:	cb080066 	sub	x6, x3, x8
    80203124:	b200d867 	orr	x7, x3, #0x7f7f7f7f7f7f7f7f
    80203128:	ea250084 	bics	x4, x4, x5
    8020312c:	8a2700c5 	bic	x5, x6, x7
    80203130:	fa4008a0 	ccmp	x5, #0x0, #0x0, eq	// eq = none
    80203134:	54000100 	b.eq	80203154 <strlen+0x54>  // b.none
    80203138:	9a853084 	csel	x4, x4, x5, cc	// cc = lo, ul, last
    8020313c:	d2800100 	mov	x0, #0x8                   	// #8
    80203140:	dac00c84 	rev	x4, x4
    80203144:	9a8033e0 	csel	x0, xzr, x0, cc	// cc = lo, ul, last
    80203148:	dac01084 	clz	x4, x4
    8020314c:	8b440c00 	add	x0, x0, x4, lsr #3
    80203150:	d65f03c0 	ret
    80203154:	a9410c02 	ldp	x2, x3, [x0, #16]
    80203158:	cb080044 	sub	x4, x2, x8
    8020315c:	b200d845 	orr	x5, x2, #0x7f7f7f7f7f7f7f7f
    80203160:	cb080066 	sub	x6, x3, x8
    80203164:	b200d867 	orr	x7, x3, #0x7f7f7f7f7f7f7f7f
    80203168:	ea250084 	bics	x4, x4, x5
    8020316c:	8a2700c5 	bic	x5, x6, x7
    80203170:	fa4008a0 	ccmp	x5, #0x0, #0x0, eq	// eq = none
    80203174:	54000140 	b.eq	8020319c <strlen+0x9c>  // b.none
    80203178:	9a853084 	csel	x4, x4, x5, cc	// cc = lo, ul, last
    8020317c:	d2800300 	mov	x0, #0x18                  	// #24
    80203180:	dac00c84 	rev	x4, x4
    80203184:	d2800206 	mov	x6, #0x10                  	// #16
    80203188:	dac01084 	clz	x4, x4
    8020318c:	9a8030c0 	csel	x0, x6, x0, cc	// cc = lo, ul, last
    80203190:	8b440c00 	add	x0, x0, x4, lsr #3
    80203194:	d65f03c0 	ret
    80203198:	d503201f 	nop
    8020319c:	927be801 	and	x1, x0, #0xffffffffffffffe0
    802031a0:	adc10821 	ldp	q1, q2, [x1, #32]!
    802031a4:	6e22ac20 	uminp	v0.16b, v1.16b, v2.16b
    802031a8:	6e20ac00 	uminp	v0.16b, v0.16b, v0.16b
    802031ac:	0e209800 	cmeq	v0.8b, v0.8b, #0
    802031b0:	9e660003 	fmov	x3, d0
    802031b4:	b4ffff63 	cbz	x3, 802031a0 <strlen+0xa0>
    802031b8:	4e209820 	cmeq	v0.16b, v1.16b, #0
    802031bc:	cb000020 	sub	x0, x1, x0
    802031c0:	35000063 	cbnz	w3, 802031cc <strlen+0xcc>
    802031c4:	4e209840 	cmeq	v0.16b, v2.16b, #0
    802031c8:	91004000 	add	x0, x0, #0x10
    802031cc:	0f0c8400 	shrn	v0.8b, v0.8h, #4
    802031d0:	9e660003 	fmov	x3, d0
    802031d4:	dac00063 	rbit	x3, x3
    802031d8:	dac01062 	clz	x2, x3
    802031dc:	8b420800 	add	x0, x0, x2, lsr #2
    802031e0:	d65f03c0 	ret
    802031e4:	927be801 	and	x1, x0, #0xffffffffffffffe0
    802031e8:	52818062 	mov	w2, #0xc03                 	// #3075
    802031ec:	72b80602 	movk	w2, #0xc030, lsl #16
    802031f0:	4c40a021 	ld1	{v1.16b-v2.16b}, [x1]
    802031f4:	4e040c40 	dup	v0.4s, w2
    802031f8:	4e209821 	cmeq	v1.16b, v1.16b, #0
    802031fc:	4e209842 	cmeq	v2.16b, v2.16b, #0
    80203200:	4e201c21 	and	v1.16b, v1.16b, v0.16b
    80203204:	4e201c42 	and	v2.16b, v2.16b, v0.16b
    80203208:	4e22bc20 	addp	v0.16b, v1.16b, v2.16b
    8020320c:	4e20bc00 	addp	v0.16b, v0.16b, v0.16b
    80203210:	9e660003 	fmov	x3, d0
    80203214:	d37ff804 	lsl	x4, x0, #1
    80203218:	9ac42463 	lsr	x3, x3, x4
    8020321c:	b4fffc23 	cbz	x3, 802031a0 <strlen+0xa0>
    80203220:	dac00063 	rbit	x3, x3
    80203224:	dac01060 	clz	x0, x3
    80203228:	d341fc00 	lsr	x0, x0, #1
    8020322c:	d65f03c0 	ret

0000000080203230 <__sfvwrite_r>:
    80203230:	a9ba7bfd 	stp	x29, x30, [sp, #-96]!
    80203234:	910003fd 	mov	x29, sp
    80203238:	a9025bf5 	stp	x21, x22, [sp, #32]
    8020323c:	aa0003f5 	mov	x21, x0
    80203240:	f9400840 	ldr	x0, [x2, #16]
    80203244:	b4000ac0 	cbz	x0, 8020339c <__sfvwrite_r+0x16c>
    80203248:	79c02025 	ldrsh	w5, [x1, #16]
    8020324c:	a90153f3 	stp	x19, x20, [sp, #16]
    80203250:	aa0103f3 	mov	x19, x1
    80203254:	a90573fb 	stp	x27, x28, [sp, #80]
    80203258:	aa0203fb 	mov	x27, x2
    8020325c:	36180a85 	tbz	w5, #3, 802033ac <__sfvwrite_r+0x17c>
    80203260:	f9400c20 	ldr	x0, [x1, #24]
    80203264:	b4000a40 	cbz	x0, 802033ac <__sfvwrite_r+0x17c>
    80203268:	a90363f7 	stp	x23, x24, [sp, #48]
    8020326c:	f9400374 	ldr	x20, [x27]
    80203270:	360803e5 	tbz	w5, #1, 802032ec <__sfvwrite_r+0xbc>
    80203274:	f9401a61 	ldr	x1, [x19, #48]
    80203278:	d2800017 	mov	x23, #0x0                   	// #0
    8020327c:	f9402264 	ldr	x4, [x19, #64]
    80203280:	d2800016 	mov	x22, #0x0                   	// #0
    80203284:	b27653f8 	mov	x24, #0x7ffffc00            	// #2147482624
    80203288:	eb1802df 	cmp	x22, x24
    8020328c:	aa1703e2 	mov	x2, x23
    80203290:	9a9892c3 	csel	x3, x22, x24, ls	// ls = plast
    80203294:	aa1503e0 	mov	x0, x21
    80203298:	b4000256 	cbz	x22, 802032e0 <__sfvwrite_r+0xb0>
    8020329c:	d63f0080 	blr	x4
    802032a0:	7100001f 	cmp	w0, #0x0
    802032a4:	5400216d 	b.le	802036d0 <__sfvwrite_r+0x4a0>
    802032a8:	f9400b61 	ldr	x1, [x27, #16]
    802032ac:	93407c00 	sxtw	x0, w0
    802032b0:	8b0002f7 	add	x23, x23, x0
    802032b4:	cb0002d6 	sub	x22, x22, x0
    802032b8:	cb000020 	sub	x0, x1, x0
    802032bc:	f9000b60 	str	x0, [x27, #16]
    802032c0:	b40020c0 	cbz	x0, 802036d8 <__sfvwrite_r+0x4a8>
    802032c4:	eb1802df 	cmp	x22, x24
    802032c8:	aa1703e2 	mov	x2, x23
    802032cc:	f9401a61 	ldr	x1, [x19, #48]
    802032d0:	9a9892c3 	csel	x3, x22, x24, ls	// ls = plast
    802032d4:	f9402264 	ldr	x4, [x19, #64]
    802032d8:	aa1503e0 	mov	x0, x21
    802032dc:	b5fffe16 	cbnz	x22, 8020329c <__sfvwrite_r+0x6c>
    802032e0:	a9405a97 	ldp	x23, x22, [x20]
    802032e4:	91004294 	add	x20, x20, #0x10
    802032e8:	17ffffe8 	b	80203288 <__sfvwrite_r+0x58>
    802032ec:	a9046bf9 	stp	x25, x26, [sp, #64]
    802032f0:	36000a65 	tbz	w5, #0, 8020343c <__sfvwrite_r+0x20c>
    802032f4:	52800018 	mov	w24, #0x0                   	// #0
    802032f8:	52800000 	mov	w0, #0x0                   	// #0
    802032fc:	d280001a 	mov	x26, #0x0                   	// #0
    80203300:	d2800019 	mov	x25, #0x0                   	// #0
    80203304:	d503201f 	nop
    80203308:	b40007f9 	cbz	x25, 80203404 <__sfvwrite_r+0x1d4>
    8020330c:	34000860 	cbz	w0, 80203418 <__sfvwrite_r+0x1e8>
    80203310:	f9400260 	ldr	x0, [x19]
    80203314:	93407f17 	sxtw	x23, w24
    80203318:	f9400e61 	ldr	x1, [x19, #24]
    8020331c:	eb1902ff 	cmp	x23, x25
    80203320:	b9400e76 	ldr	w22, [x19, #12]
    80203324:	9a9992f7 	csel	x23, x23, x25, ls	// ls = plast
    80203328:	b9402263 	ldr	w3, [x19, #32]
    8020332c:	eb01001f 	cmp	x0, x1
    80203330:	0b160076 	add	w22, w3, w22
    80203334:	7a5682e4 	ccmp	w23, w22, #0x4, hi	// hi = pmore
    80203338:	540019ac 	b.gt	8020366c <__sfvwrite_r+0x43c>
    8020333c:	6b17007f 	cmp	w3, w23
    80203340:	540017ec 	b.gt	8020363c <__sfvwrite_r+0x40c>
    80203344:	f9401a61 	ldr	x1, [x19, #48]
    80203348:	aa1a03e2 	mov	x2, x26
    8020334c:	f9402264 	ldr	x4, [x19, #64]
    80203350:	aa1503e0 	mov	x0, x21
    80203354:	d63f0080 	blr	x4
    80203358:	2a0003f6 	mov	w22, w0
    8020335c:	7100001f 	cmp	w0, #0x0
    80203360:	540003cd 	b.le	802033d8 <__sfvwrite_r+0x1a8>
    80203364:	6b160318 	subs	w24, w24, w22
    80203368:	52800020 	mov	w0, #0x1                   	// #1
    8020336c:	540002e0 	b.eq	802033c8 <__sfvwrite_r+0x198>  // b.none
    80203370:	f9400b61 	ldr	x1, [x27, #16]
    80203374:	93407ed6 	sxtw	x22, w22
    80203378:	8b16035a 	add	x26, x26, x22
    8020337c:	cb160339 	sub	x25, x25, x22
    80203380:	cb160021 	sub	x1, x1, x22
    80203384:	f9000b61 	str	x1, [x27, #16]
    80203388:	b5fffc01 	cbnz	x1, 80203308 <__sfvwrite_r+0xd8>
    8020338c:	a94153f3 	ldp	x19, x20, [sp, #16]
    80203390:	a94363f7 	ldp	x23, x24, [sp, #48]
    80203394:	a9446bf9 	ldp	x25, x26, [sp, #64]
    80203398:	a94573fb 	ldp	x27, x28, [sp, #80]
    8020339c:	52800000 	mov	w0, #0x0                   	// #0
    802033a0:	a9425bf5 	ldp	x21, x22, [sp, #32]
    802033a4:	a8c67bfd 	ldp	x29, x30, [sp], #96
    802033a8:	d65f03c0 	ret
    802033ac:	aa1303e1 	mov	x1, x19
    802033b0:	aa1503e0 	mov	x0, x21
    802033b4:	94001beb 	bl	8020a360 <__swsetup_r>
    802033b8:	350001a0 	cbnz	w0, 802033ec <__sfvwrite_r+0x1bc>
    802033bc:	79c02265 	ldrsh	w5, [x19, #16]
    802033c0:	a90363f7 	stp	x23, x24, [sp, #48]
    802033c4:	17ffffaa 	b	8020326c <__sfvwrite_r+0x3c>
    802033c8:	aa1303e1 	mov	x1, x19
    802033cc:	aa1503e0 	mov	x0, x21
    802033d0:	940022e8 	bl	8020bf70 <_fflush_r>
    802033d4:	34fffce0 	cbz	w0, 80203370 <__sfvwrite_r+0x140>
    802033d8:	a9446bf9 	ldp	x25, x26, [sp, #64]
    802033dc:	79c02260 	ldrsh	w0, [x19, #16]
    802033e0:	a94363f7 	ldp	x23, x24, [sp, #48]
    802033e4:	321a0000 	orr	w0, w0, #0x40
    802033e8:	79002260 	strh	w0, [x19, #16]
    802033ec:	a94153f3 	ldp	x19, x20, [sp, #16]
    802033f0:	12800000 	mov	w0, #0xffffffff            	// #-1
    802033f4:	a9425bf5 	ldp	x21, x22, [sp, #32]
    802033f8:	a94573fb 	ldp	x27, x28, [sp, #80]
    802033fc:	a8c67bfd 	ldp	x29, x30, [sp], #96
    80203400:	d65f03c0 	ret
    80203404:	f9400699 	ldr	x25, [x20, #8]
    80203408:	aa1403e0 	mov	x0, x20
    8020340c:	91004294 	add	x20, x20, #0x10
    80203410:	b4ffffb9 	cbz	x25, 80203404 <__sfvwrite_r+0x1d4>
    80203414:	f940001a 	ldr	x26, [x0]
    80203418:	aa1903e2 	mov	x2, x25
    8020341c:	aa1a03e0 	mov	x0, x26
    80203420:	52800141 	mov	w1, #0xa                   	// #10
    80203424:	94001b97 	bl	8020a280 <memchr>
    80203428:	91000418 	add	x24, x0, #0x1
    8020342c:	f100001f 	cmp	x0, #0x0
    80203430:	cb1a0318 	sub	x24, x24, x26
    80203434:	1a991718 	csinc	w24, w24, w25, ne	// ne = any
    80203438:	17ffffb6 	b	80203310 <__sfvwrite_r+0xe0>
    8020343c:	f9400264 	ldr	x4, [x19]
    80203440:	d280001c 	mov	x28, #0x0                   	// #0
    80203444:	b9400e61 	ldr	w1, [x19, #12]
    80203448:	d280001a 	mov	x26, #0x0                   	// #0
    8020344c:	d503201f 	nop
    80203450:	aa0403e0 	mov	x0, x4
    80203454:	2a0103f8 	mov	w24, w1
    80203458:	b40003fa 	cbz	x26, 802034d4 <__sfvwrite_r+0x2a4>
    8020345c:	36480425 	tbz	w5, #9, 802034e0 <__sfvwrite_r+0x2b0>
    80203460:	93407c37 	sxtw	x23, w1
    80203464:	eb1a02ff 	cmp	x23, x26
    80203468:	540008c9 	b.ls	80203580 <__sfvwrite_r+0x350>  // b.plast
    8020346c:	93407f41 	sxtw	x1, w26
    80203470:	aa0103f9 	mov	x25, x1
    80203474:	aa0403e0 	mov	x0, x4
    80203478:	aa0103f7 	mov	x23, x1
    8020347c:	2a1a03f8 	mov	w24, w26
    80203480:	aa1c03e1 	mov	x1, x28
    80203484:	aa1703e2 	mov	x2, x23
    80203488:	94001c7e 	bl	8020a680 <memcpy>
    8020348c:	f9400264 	ldr	x4, [x19]
    80203490:	b9400e61 	ldr	w1, [x19, #12]
    80203494:	8b170084 	add	x4, x4, x23
    80203498:	f9000264 	str	x4, [x19]
    8020349c:	4b180021 	sub	w1, w1, w24
    802034a0:	b9000e61 	str	w1, [x19, #12]
    802034a4:	f9400b60 	ldr	x0, [x27, #16]
    802034a8:	8b19039c 	add	x28, x28, x25
    802034ac:	cb19035a 	sub	x26, x26, x25
    802034b0:	cb190000 	sub	x0, x0, x25
    802034b4:	f9000b60 	str	x0, [x27, #16]
    802034b8:	b4fff6a0 	cbz	x0, 8020338c <__sfvwrite_r+0x15c>
    802034bc:	f9400264 	ldr	x4, [x19]
    802034c0:	b9400e61 	ldr	w1, [x19, #12]
    802034c4:	79c02265 	ldrsh	w5, [x19, #16]
    802034c8:	aa0403e0 	mov	x0, x4
    802034cc:	2a0103f8 	mov	w24, w1
    802034d0:	b5fffc7a 	cbnz	x26, 8020345c <__sfvwrite_r+0x22c>
    802034d4:	a9406a9c 	ldp	x28, x26, [x20]
    802034d8:	91004294 	add	x20, x20, #0x10
    802034dc:	17ffffdd 	b	80203450 <__sfvwrite_r+0x220>
    802034e0:	f9400e60 	ldr	x0, [x19, #24]
    802034e4:	eb04001f 	cmp	x0, x4
    802034e8:	54000243 	b.cc	80203530 <__sfvwrite_r+0x300>  // b.lo, b.ul, b.last
    802034ec:	b9402265 	ldr	w5, [x19, #32]
    802034f0:	eb25c35f 	cmp	x26, w5, sxtw
    802034f4:	540001e3 	b.cc	80203530 <__sfvwrite_r+0x300>  // b.lo, b.ul, b.last
    802034f8:	b2407be0 	mov	x0, #0x7fffffff            	// #2147483647
    802034fc:	eb00035f 	cmp	x26, x0
    80203500:	9a809343 	csel	x3, x26, x0, ls	// ls = plast
    80203504:	aa1c03e2 	mov	x2, x28
    80203508:	f9401a61 	ldr	x1, [x19, #48]
    8020350c:	aa1503e0 	mov	x0, x21
    80203510:	1ac50c63 	sdiv	w3, w3, w5
    80203514:	f9402264 	ldr	x4, [x19, #64]
    80203518:	1b057c63 	mul	w3, w3, w5
    8020351c:	d63f0080 	blr	x4
    80203520:	7100001f 	cmp	w0, #0x0
    80203524:	54fff5ad 	b.le	802033d8 <__sfvwrite_r+0x1a8>
    80203528:	93407c19 	sxtw	x25, w0
    8020352c:	17ffffde 	b	802034a4 <__sfvwrite_r+0x274>
    80203530:	93407c23 	sxtw	x3, w1
    80203534:	aa0403e0 	mov	x0, x4
    80203538:	eb1a007f 	cmp	x3, x26
    8020353c:	aa1c03e1 	mov	x1, x28
    80203540:	9a9a9078 	csel	x24, x3, x26, ls	// ls = plast
    80203544:	93407f19 	sxtw	x25, w24
    80203548:	aa1903e2 	mov	x2, x25
    8020354c:	94001c4d 	bl	8020a680 <memcpy>
    80203550:	f9400264 	ldr	x4, [x19]
    80203554:	b9400e61 	ldr	w1, [x19, #12]
    80203558:	8b190084 	add	x4, x4, x25
    8020355c:	f9000264 	str	x4, [x19]
    80203560:	4b180021 	sub	w1, w1, w24
    80203564:	b9000e61 	str	w1, [x19, #12]
    80203568:	35fff9e1 	cbnz	w1, 802034a4 <__sfvwrite_r+0x274>
    8020356c:	aa1303e1 	mov	x1, x19
    80203570:	aa1503e0 	mov	x0, x21
    80203574:	9400227f 	bl	8020bf70 <_fflush_r>
    80203578:	34fff960 	cbz	w0, 802034a4 <__sfvwrite_r+0x274>
    8020357c:	17ffff97 	b	802033d8 <__sfvwrite_r+0x1a8>
    80203580:	93407f59 	sxtw	x25, w26
    80203584:	52809001 	mov	w1, #0x480                 	// #1152
    80203588:	6a0100bf 	tst	w5, w1
    8020358c:	54fff7a0 	b.eq	80203480 <__sfvwrite_r+0x250>  // b.none
    80203590:	b9402266 	ldr	w6, [x19, #32]
    80203594:	f9400e61 	ldr	x1, [x19, #24]
    80203598:	0b0604c6 	add	w6, w6, w6, lsl #1
    8020359c:	cb010099 	sub	x25, x4, x1
    802035a0:	0b467cc6 	add	w6, w6, w6, lsr #31
    802035a4:	93407f36 	sxtw	x22, w25
    802035a8:	13017cd7 	asr	w23, w6, #1
    802035ac:	910006c0 	add	x0, x22, #0x1
    802035b0:	8b1a0000 	add	x0, x0, x26
    802035b4:	93407ee2 	sxtw	x2, w23
    802035b8:	eb00005f 	cmp	x2, x0
    802035bc:	54000082 	b.cs	802035cc <__sfvwrite_r+0x39c>  // b.hs, b.nlast
    802035c0:	11000726 	add	w6, w25, #0x1
    802035c4:	0b1a00d7 	add	w23, w6, w26
    802035c8:	93407ee2 	sxtw	x2, w23
    802035cc:	36500685 	tbz	w5, #10, 8020369c <__sfvwrite_r+0x46c>
    802035d0:	aa0203e1 	mov	x1, x2
    802035d4:	aa1503e0 	mov	x0, x21
    802035d8:	9400151a 	bl	80208a40 <_malloc_r>
    802035dc:	aa0003f8 	mov	x24, x0
    802035e0:	b4000840 	cbz	x0, 802036e8 <__sfvwrite_r+0x4b8>
    802035e4:	f9400e61 	ldr	x1, [x19, #24]
    802035e8:	aa1603e2 	mov	x2, x22
    802035ec:	94001c25 	bl	8020a680 <memcpy>
    802035f0:	79402260 	ldrh	w0, [x19, #16]
    802035f4:	12809001 	mov	w1, #0xfffffb7f            	// #-1153
    802035f8:	0a010000 	and	w0, w0, w1
    802035fc:	32190000 	orr	w0, w0, #0x80
    80203600:	79002260 	strh	w0, [x19, #16]
    80203604:	8b160300 	add	x0, x24, x22
    80203608:	4b1902e4 	sub	w4, w23, w25
    8020360c:	93407f59 	sxtw	x25, w26
    80203610:	f9000260 	str	x0, [x19]
    80203614:	b9000e64 	str	w4, [x19, #12]
    80203618:	aa1903e1 	mov	x1, x25
    8020361c:	f9000e78 	str	x24, [x19, #24]
    80203620:	aa0003e4 	mov	x4, x0
    80203624:	b9002277 	str	w23, [x19, #32]
    80203628:	2a1a03f8 	mov	w24, w26
    8020362c:	eb1a033f 	cmp	x25, x26
    80203630:	54fff208 	b.hi	80203470 <__sfvwrite_r+0x240>  // b.pmore
    80203634:	aa1903f7 	mov	x23, x25
    80203638:	17ffff92 	b	80203480 <__sfvwrite_r+0x250>
    8020363c:	93407efc 	sxtw	x28, w23
    80203640:	aa1a03e1 	mov	x1, x26
    80203644:	aa1c03e2 	mov	x2, x28
    80203648:	94001c0e 	bl	8020a680 <memcpy>
    8020364c:	f9400260 	ldr	x0, [x19]
    80203650:	2a1703f6 	mov	w22, w23
    80203654:	b9400e61 	ldr	w1, [x19, #12]
    80203658:	8b1c0000 	add	x0, x0, x28
    8020365c:	f9000260 	str	x0, [x19]
    80203660:	4b170021 	sub	w1, w1, w23
    80203664:	b9000e61 	str	w1, [x19, #12]
    80203668:	17ffff3f 	b	80203364 <__sfvwrite_r+0x134>
    8020366c:	93407ed7 	sxtw	x23, w22
    80203670:	aa1a03e1 	mov	x1, x26
    80203674:	aa1703e2 	mov	x2, x23
    80203678:	94001c02 	bl	8020a680 <memcpy>
    8020367c:	f9400262 	ldr	x2, [x19]
    80203680:	aa1303e1 	mov	x1, x19
    80203684:	aa1503e0 	mov	x0, x21
    80203688:	8b170042 	add	x2, x2, x23
    8020368c:	f9000262 	str	x2, [x19]
    80203690:	94002238 	bl	8020bf70 <_fflush_r>
    80203694:	34ffe680 	cbz	w0, 80203364 <__sfvwrite_r+0x134>
    80203698:	17ffff50 	b	802033d8 <__sfvwrite_r+0x1a8>
    8020369c:	aa1503e0 	mov	x0, x21
    802036a0:	940022b4 	bl	8020c170 <_realloc_r>
    802036a4:	aa0003f8 	mov	x24, x0
    802036a8:	b5fffae0 	cbnz	x0, 80203604 <__sfvwrite_r+0x3d4>
    802036ac:	f9400e61 	ldr	x1, [x19, #24]
    802036b0:	aa1503e0 	mov	x0, x21
    802036b4:	94002453 	bl	8020c800 <_free_r>
    802036b8:	79c02260 	ldrsh	w0, [x19, #16]
    802036bc:	52800181 	mov	w1, #0xc                   	// #12
    802036c0:	a9446bf9 	ldp	x25, x26, [sp, #64]
    802036c4:	12187800 	and	w0, w0, #0xffffff7f
    802036c8:	b90002a1 	str	w1, [x21]
    802036cc:	17ffff45 	b	802033e0 <__sfvwrite_r+0x1b0>
    802036d0:	79c02260 	ldrsh	w0, [x19, #16]
    802036d4:	17ffff43 	b	802033e0 <__sfvwrite_r+0x1b0>
    802036d8:	a94153f3 	ldp	x19, x20, [sp, #16]
    802036dc:	a94363f7 	ldp	x23, x24, [sp, #48]
    802036e0:	a94573fb 	ldp	x27, x28, [sp, #80]
    802036e4:	17ffff2e 	b	8020339c <__sfvwrite_r+0x16c>
    802036e8:	a9446bf9 	ldp	x25, x26, [sp, #64]
    802036ec:	52800181 	mov	w1, #0xc                   	// #12
    802036f0:	79c02260 	ldrsh	w0, [x19, #16]
    802036f4:	b90002a1 	str	w1, [x21]
    802036f8:	17ffff3a 	b	802033e0 <__sfvwrite_r+0x1b0>
    802036fc:	00000000 	udf	#0

0000000080203700 <_fwalk_sglue>:
    80203700:	a9bb7bfd 	stp	x29, x30, [sp, #-80]!
    80203704:	910003fd 	mov	x29, sp
    80203708:	a9025bf5 	stp	x21, x22, [sp, #32]
    8020370c:	aa0203f6 	mov	x22, x2
    80203710:	52800015 	mov	w21, #0x0                   	// #0
    80203714:	a90363f7 	stp	x23, x24, [sp, #48]
    80203718:	aa0003f7 	mov	x23, x0
    8020371c:	aa0103f8 	mov	x24, x1
    80203720:	a90153f3 	stp	x19, x20, [sp, #16]
    80203724:	f90023f9 	str	x25, [sp, #64]
    80203728:	52801719 	mov	w25, #0xb8                  	// #184
    8020372c:	d503201f 	nop
    80203730:	b9400ad4 	ldr	w20, [x22, #8]
    80203734:	f9400ad3 	ldr	x19, [x22, #16]
    80203738:	7100029f 	cmp	w20, #0x0
    8020373c:	5400020d 	b.le	8020377c <_fwalk_sglue+0x7c>
    80203740:	9bb94e94 	umaddl	x20, w20, w25, x19
    80203744:	d503201f 	nop
    80203748:	79402263 	ldrh	w3, [x19, #16]
    8020374c:	7100047f 	cmp	w3, #0x1
    80203750:	54000109 	b.ls	80203770 <_fwalk_sglue+0x70>  // b.plast
    80203754:	79c02663 	ldrsh	w3, [x19, #18]
    80203758:	aa1303e1 	mov	x1, x19
    8020375c:	aa1703e0 	mov	x0, x23
    80203760:	3100047f 	cmn	w3, #0x1
    80203764:	54000060 	b.eq	80203770 <_fwalk_sglue+0x70>  // b.none
    80203768:	d63f0300 	blr	x24
    8020376c:	2a0002b5 	orr	w21, w21, w0
    80203770:	9102e273 	add	x19, x19, #0xb8
    80203774:	eb14027f 	cmp	x19, x20
    80203778:	54fffe81 	b.ne	80203748 <_fwalk_sglue+0x48>  // b.any
    8020377c:	f94002d6 	ldr	x22, [x22]
    80203780:	b5fffd96 	cbnz	x22, 80203730 <_fwalk_sglue+0x30>
    80203784:	a94153f3 	ldp	x19, x20, [sp, #16]
    80203788:	2a1503e0 	mov	w0, w21
    8020378c:	a9425bf5 	ldp	x21, x22, [sp, #32]
    80203790:	a94363f7 	ldp	x23, x24, [sp, #48]
    80203794:	f94023f9 	ldr	x25, [sp, #64]
    80203798:	a8c57bfd 	ldp	x29, x30, [sp], #80
    8020379c:	d65f03c0 	ret

00000000802037a0 <_write_r>:
    802037a0:	a9be7bfd 	stp	x29, x30, [sp, #-32]!
    802037a4:	910003fd 	mov	x29, sp
    802037a8:	a90153f3 	stp	x19, x20, [sp, #16]
    802037ac:	b00003f4 	adrp	x20, 80280000 <gits_lock>
    802037b0:	aa0003f3 	mov	x19, x0
    802037b4:	2a0103e0 	mov	w0, w1
    802037b8:	aa0203e1 	mov	x1, x2
    802037bc:	b9048a9f 	str	wzr, [x20, #1160]
    802037c0:	aa0303e2 	mov	x2, x3
    802037c4:	97fff43f 	bl	802008c0 <_write>
    802037c8:	93407c01 	sxtw	x1, w0
    802037cc:	3100041f 	cmn	w0, #0x1
    802037d0:	540000a0 	b.eq	802037e4 <_write_r+0x44>  // b.none
    802037d4:	a94153f3 	ldp	x19, x20, [sp, #16]
    802037d8:	aa0103e0 	mov	x0, x1
    802037dc:	a8c27bfd 	ldp	x29, x30, [sp], #32
    802037e0:	d65f03c0 	ret
    802037e4:	b9448a80 	ldr	w0, [x20, #1160]
    802037e8:	34ffff60 	cbz	w0, 802037d4 <_write_r+0x34>
    802037ec:	b9000260 	str	w0, [x19]
    802037f0:	aa0103e0 	mov	x0, x1
    802037f4:	a94153f3 	ldp	x19, x20, [sp, #16]
    802037f8:	a8c27bfd 	ldp	x29, x30, [sp], #32
    802037fc:	d65f03c0 	ret

0000000080203800 <_vfprintf_r>:
    80203800:	d10a43ff 	sub	sp, sp, #0x290
    80203804:	a9007bfd 	stp	x29, x30, [sp]
    80203808:	910003fd 	mov	x29, sp
    8020380c:	a9025bf5 	stp	x21, x22, [sp, #32]
    80203810:	aa0103f5 	mov	x21, x1
    80203814:	f9400061 	ldr	x1, [x3]
    80203818:	f9003fe1 	str	x1, [sp, #120]
    8020381c:	f9400461 	ldr	x1, [x3, #8]
    80203820:	f90053e1 	str	x1, [sp, #160]
    80203824:	f9400861 	ldr	x1, [x3, #16]
    80203828:	f90087e1 	str	x1, [sp, #264]
    8020382c:	b9401861 	ldr	w1, [x3, #24]
    80203830:	b90093e1 	str	w1, [sp, #144]
    80203834:	b9401c61 	ldr	w1, [x3, #28]
    80203838:	a90153f3 	stp	x19, x20, [sp, #16]
    8020383c:	aa0303f4 	mov	x20, x3
    80203840:	aa0003f3 	mov	x19, x0
    80203844:	a90363f7 	stp	x23, x24, [sp, #48]
    80203848:	aa0203f7 	mov	x23, x2
    8020384c:	b900f7e1 	str	w1, [sp, #244]
    80203850:	94001a24 	bl	8020a0e0 <_localeconv_r>
    80203854:	f9400000 	ldr	x0, [x0]
    80203858:	f9005be0 	str	x0, [sp, #176]
    8020385c:	97fffe29 	bl	80203100 <strlen>
    80203860:	f90057e0 	str	x0, [sp, #168]
    80203864:	d2800102 	mov	x2, #0x8                   	// #8
    80203868:	9105e3e0 	add	x0, sp, #0x178
    8020386c:	52800001 	mov	w1, #0x0                   	// #0
    80203870:	97fffd94 	bl	80202ec0 <memset>
    80203874:	b4000073 	cbz	x19, 80203880 <_vfprintf_r+0x80>
    80203878:	f9402660 	ldr	x0, [x19, #72]
    8020387c:	b400cb40 	cbz	x0, 802051e4 <_vfprintf_r+0x19e4>
    80203880:	b940b2a1 	ldr	w1, [x21, #176]
    80203884:	79c022a0 	ldrsh	w0, [x21, #16]
    80203888:	37000041 	tbnz	w1, #0, 80203890 <_vfprintf_r+0x90>
    8020388c:	3648a2e0 	tbz	w0, #9, 80204ce8 <_vfprintf_r+0x14e8>
    80203890:	376800c0 	tbnz	w0, #13, 802038a8 <_vfprintf_r+0xa8>
    80203894:	b940b2a1 	ldr	w1, [x21, #176]
    80203898:	32130000 	orr	w0, w0, #0x2000
    8020389c:	790022a0 	strh	w0, [x21, #16]
    802038a0:	12127821 	and	w1, w1, #0xffffdfff
    802038a4:	b900b2a1 	str	w1, [x21, #176]
    802038a8:	361805e0 	tbz	w0, #3, 80203964 <_vfprintf_r+0x164>
    802038ac:	f9400ea1 	ldr	x1, [x21, #24]
    802038b0:	b40005a1 	cbz	x1, 80203964 <_vfprintf_r+0x164>
    802038b4:	52800341 	mov	w1, #0x1a                  	// #26
    802038b8:	0a010001 	and	w1, w0, w1
    802038bc:	7100283f 	cmp	w1, #0xa
    802038c0:	54000640 	b.eq	80203988 <_vfprintf_r+0x188>  // b.none
    802038c4:	910843f6 	add	x22, sp, #0x210
    802038c8:	6d0627e8 	stp	d8, d9, [sp, #96]
    802038cc:	2f00e408 	movi	d8, #0x0
    802038d0:	d0000074 	adrp	x20, 80211000 <__mprec_tens+0x180>
    802038d4:	aa1703ea 	mov	x10, x23
    802038d8:	912b4294 	add	x20, x20, #0xad0
    802038dc:	a90573fb 	stp	x27, x28, [sp, #80]
    802038e0:	aa1603fc 	mov	x28, x22
    802038e4:	b0000060 	adrp	x0, 80210000 <__trunctfdf2+0xc0>
    802038e8:	91203000 	add	x0, x0, #0x80c
    802038ec:	a9046bf9 	stp	x25, x26, [sp, #64]
    802038f0:	b90077ff 	str	wzr, [sp, #116]
    802038f4:	f90043e0 	str	x0, [sp, #128]
    802038f8:	b90097ff 	str	wzr, [sp, #148]
    802038fc:	a90e7fff 	stp	xzr, xzr, [sp, #224]
    80203900:	b900f3ff 	str	wzr, [sp, #240]
    80203904:	a90fffff 	stp	xzr, xzr, [sp, #248]
    80203908:	f900cbf6 	str	x22, [sp, #400]
    8020390c:	b9019bff 	str	wzr, [sp, #408]
    80203910:	f900d3ff 	str	xzr, [sp, #416]
    80203914:	aa0a03f7 	mov	x23, x10
    80203918:	aa0a03f8 	mov	x24, x10
    8020391c:	d503201f 	nop
    80203920:	f9407699 	ldr	x25, [x20, #232]
    80203924:	940019df 	bl	8020a0a0 <__locale_mb_cur_max>
    80203928:	9105e3e4 	add	x4, sp, #0x178
    8020392c:	93407c03 	sxtw	x3, w0
    80203930:	aa1703e2 	mov	x2, x23
    80203934:	9105b3e1 	add	x1, sp, #0x16c
    80203938:	aa1303e0 	mov	x0, x19
    8020393c:	d63f0320 	blr	x25
    80203940:	7100001f 	cmp	w0, #0x0
    80203944:	34000580 	cbz	w0, 802039f4 <_vfprintf_r+0x1f4>
    80203948:	5400048b 	b.lt	802039d8 <_vfprintf_r+0x1d8>  // b.tstop
    8020394c:	b9416fe1 	ldr	w1, [sp, #364]
    80203950:	7100943f 	cmp	w1, #0x25
    80203954:	540039a0 	b.eq	80204088 <_vfprintf_r+0x888>  // b.none
    80203958:	93407c00 	sxtw	x0, w0
    8020395c:	8b0002f7 	add	x23, x23, x0
    80203960:	17fffff0 	b	80203920 <_vfprintf_r+0x120>
    80203964:	aa1503e1 	mov	x1, x21
    80203968:	aa1303e0 	mov	x0, x19
    8020396c:	94001a7d 	bl	8020a360 <__swsetup_r>
    80203970:	35014ee0 	cbnz	w0, 8020634c <_vfprintf_r+0x2b4c>
    80203974:	79c022a0 	ldrsh	w0, [x21, #16]
    80203978:	52800341 	mov	w1, #0x1a                  	// #26
    8020397c:	0a010001 	and	w1, w0, w1
    80203980:	7100283f 	cmp	w1, #0xa
    80203984:	54fffa01 	b.ne	802038c4 <_vfprintf_r+0xc4>  // b.any
    80203988:	79c026a1 	ldrsh	w1, [x21, #18]
    8020398c:	37fff9c1 	tbnz	w1, #31, 802038c4 <_vfprintf_r+0xc4>
    80203990:	b940b2a1 	ldr	w1, [x21, #176]
    80203994:	37000041 	tbnz	w1, #0, 8020399c <_vfprintf_r+0x19c>
    80203998:	364918c0 	tbz	w0, #9, 80205cb0 <_vfprintf_r+0x24b0>
    8020399c:	ad400680 	ldp	q0, q1, [x20]
    802039a0:	aa1703e2 	mov	x2, x23
    802039a4:	aa1503e1 	mov	x1, x21
    802039a8:	9104c3e3 	add	x3, sp, #0x130
    802039ac:	aa1303e0 	mov	x0, x19
    802039b0:	ad0987e0 	stp	q0, q1, [sp, #304]
    802039b4:	94000c5f 	bl	80206b30 <__sbprintf>
    802039b8:	b90077e0 	str	w0, [sp, #116]
    802039bc:	a9407bfd 	ldp	x29, x30, [sp]
    802039c0:	a94153f3 	ldp	x19, x20, [sp, #16]
    802039c4:	a9425bf5 	ldp	x21, x22, [sp, #32]
    802039c8:	a94363f7 	ldp	x23, x24, [sp, #48]
    802039cc:	b94077e0 	ldr	w0, [sp, #116]
    802039d0:	910a43ff 	add	sp, sp, #0x290
    802039d4:	d65f03c0 	ret
    802039d8:	9105e3e0 	add	x0, sp, #0x178
    802039dc:	d2800102 	mov	x2, #0x8                   	// #8
    802039e0:	52800001 	mov	w1, #0x0                   	// #0
    802039e4:	97fffd37 	bl	80202ec0 <memset>
    802039e8:	d2800020 	mov	x0, #0x1                   	// #1
    802039ec:	8b0002f7 	add	x23, x23, x0
    802039f0:	17ffffcc 	b	80203920 <_vfprintf_r+0x120>
    802039f4:	2a0003fa 	mov	w26, w0
    802039f8:	cb1802e0 	sub	x0, x23, x24
    802039fc:	aa1803ea 	mov	x10, x24
    80203a00:	2a0003fb 	mov	w27, w0
    80203a04:	3400e3a0 	cbz	w0, 80205678 <_vfprintf_r+0x1e78>
    80203a08:	f940d3e2 	ldr	x2, [sp, #416]
    80203a0c:	93407f61 	sxtw	x1, w27
    80203a10:	b9419be0 	ldr	w0, [sp, #408]
    80203a14:	8b010042 	add	x2, x2, x1
    80203a18:	a900078a 	stp	x10, x1, [x28]
    80203a1c:	11000400 	add	w0, w0, #0x1
    80203a20:	b9019be0 	str	w0, [sp, #408]
    80203a24:	9100439c 	add	x28, x28, #0x10
    80203a28:	f900d3e2 	str	x2, [sp, #416]
    80203a2c:	71001c1f 	cmp	w0, #0x7
    80203a30:	5400452c 	b.gt	802042d4 <_vfprintf_r+0xad4>
    80203a34:	b94077e0 	ldr	w0, [sp, #116]
    80203a38:	0b1b0000 	add	w0, w0, w27
    80203a3c:	b90077e0 	str	w0, [sp, #116]
    80203a40:	3400e1da 	cbz	w26, 80205678 <_vfprintf_r+0x1e78>
    80203a44:	910006ea 	add	x10, x23, #0x1
    80203a48:	394006e8 	ldrb	w8, [x23, #1]
    80203a4c:	12800007 	mov	w7, #0xffffffff            	// #-1
    80203a50:	5280000b 	mov	w11, #0x0                   	// #0
    80203a54:	52800009 	mov	w9, #0x0                   	// #0
    80203a58:	2a0b03f8 	mov	w24, w11
    80203a5c:	2a0903f7 	mov	w23, w9
    80203a60:	2a0703f9 	mov	w25, w7
    80203a64:	aa0a03fa 	mov	x26, x10
    80203a68:	39057fff 	strb	wzr, [sp, #351]
    80203a6c:	9100075a 	add	x26, x26, #0x1
    80203a70:	51008100 	sub	w0, w8, #0x20
    80203a74:	7101681f 	cmp	w0, #0x5a
    80203a78:	540000c8 	b.hi	80203a90 <_vfprintf_r+0x290>  // b.pmore
    80203a7c:	f94043e1 	ldr	x1, [sp, #128]
    80203a80:	78605820 	ldrh	w0, [x1, w0, uxtw #1]
    80203a84:	10000061 	adr	x1, 80203a90 <_vfprintf_r+0x290>
    80203a88:	8b20a820 	add	x0, x1, w0, sxth #2
    80203a8c:	d61f0000 	br	x0
    80203a90:	2a1703e9 	mov	w9, w23
    80203a94:	2a1803eb 	mov	w11, w24
    80203a98:	aa1a03ea 	mov	x10, x26
    80203a9c:	3400dee8 	cbz	w8, 80205678 <_vfprintf_r+0x1e78>
    80203aa0:	5280003a 	mov	w26, #0x1                   	// #1
    80203aa4:	9106a3fb 	add	x27, sp, #0x1a8
    80203aa8:	2a1a03f7 	mov	w23, w26
    80203aac:	52800001 	mov	w1, #0x0                   	// #0
    80203ab0:	d2800019 	mov	x25, #0x0                   	// #0
    80203ab4:	52800007 	mov	w7, #0x0                   	// #0
    80203ab8:	52800018 	mov	w24, #0x0                   	// #0
    80203abc:	b9008bff 	str	wzr, [sp, #136]
    80203ac0:	b9009bff 	str	wzr, [sp, #152]
    80203ac4:	39057fff 	strb	wzr, [sp, #351]
    80203ac8:	3906a3e8 	strb	w8, [sp, #424]
    80203acc:	d503201f 	nop
    80203ad0:	721f0132 	ands	w18, w9, #0x2
    80203ad4:	11000b42 	add	w2, w26, #0x2
    80203ad8:	f940d3e0 	ldr	x0, [sp, #416]
    80203adc:	1a9a105a 	csel	w26, w2, w26, ne	// ne = any
    80203ae0:	5280108e 	mov	w14, #0x84                  	// #132
    80203ae4:	6a0e012e 	ands	w14, w9, w14
    80203ae8:	54000081 	b.ne	80203af8 <_vfprintf_r+0x2f8>  // b.any
    80203aec:	4b1a0164 	sub	w4, w11, w26
    80203af0:	7100009f 	cmp	w4, #0x0
    80203af4:	54001a6c 	b.gt	80203e40 <_vfprintf_r+0x640>
    80203af8:	340001a1 	cbz	w1, 80203b2c <_vfprintf_r+0x32c>
    80203afc:	b9419be1 	ldr	w1, [sp, #408]
    80203b00:	91057fe2 	add	x2, sp, #0x15f
    80203b04:	91000400 	add	x0, x0, #0x1
    80203b08:	f9000382 	str	x2, [x28]
    80203b0c:	11000421 	add	w1, w1, #0x1
    80203b10:	d2800022 	mov	x2, #0x1                   	// #1
    80203b14:	f9000782 	str	x2, [x28, #8]
    80203b18:	9100439c 	add	x28, x28, #0x10
    80203b1c:	b9019be1 	str	w1, [sp, #408]
    80203b20:	f900d3e0 	str	x0, [sp, #416]
    80203b24:	71001c3f 	cmp	w1, #0x7
    80203b28:	54003e4c 	b.gt	802042f0 <_vfprintf_r+0xaf0>
    80203b2c:	340001b2 	cbz	w18, 80203b60 <_vfprintf_r+0x360>
    80203b30:	b9419be1 	ldr	w1, [sp, #408]
    80203b34:	910583e2 	add	x2, sp, #0x160
    80203b38:	91000800 	add	x0, x0, #0x2
    80203b3c:	f9000382 	str	x2, [x28]
    80203b40:	11000421 	add	w1, w1, #0x1
    80203b44:	d2800042 	mov	x2, #0x2                   	// #2
    80203b48:	f9000782 	str	x2, [x28, #8]
    80203b4c:	9100439c 	add	x28, x28, #0x10
    80203b50:	b9019be1 	str	w1, [sp, #408]
    80203b54:	f900d3e0 	str	x0, [sp, #416]
    80203b58:	71001c3f 	cmp	w1, #0x7
    80203b5c:	5400730c 	b.gt	802049bc <_vfprintf_r+0x11bc>
    80203b60:	710201df 	cmp	w14, #0x80
    80203b64:	540029e0 	b.eq	802040a0 <_vfprintf_r+0x8a0>  // b.none
    80203b68:	4b1700e7 	sub	w7, w7, w23
    80203b6c:	710000ff 	cmp	w7, #0x0
    80203b70:	5400050c 	b.gt	80203c10 <_vfprintf_r+0x410>
    80203b74:	37400e29 	tbnz	w9, #8, 80203d38 <_vfprintf_r+0x538>
    80203b78:	b9419be1 	ldr	w1, [sp, #408]
    80203b7c:	93407eec 	sxtw	x12, w23
    80203b80:	8b0c0000 	add	x0, x0, x12
    80203b84:	a900339b 	stp	x27, x12, [x28]
    80203b88:	11000421 	add	w1, w1, #0x1
    80203b8c:	b9019be1 	str	w1, [sp, #408]
    80203b90:	f900d3e0 	str	x0, [sp, #416]
    80203b94:	71001c3f 	cmp	w1, #0x7
    80203b98:	5400224c 	b.gt	80203fe0 <_vfprintf_r+0x7e0>
    80203b9c:	9100439c 	add	x28, x28, #0x10
    80203ba0:	36100089 	tbz	w9, #2, 80203bb0 <_vfprintf_r+0x3b0>
    80203ba4:	4b1a0177 	sub	w23, w11, w26
    80203ba8:	710002ff 	cmp	w23, #0x0
    80203bac:	5400730c 	b.gt	80204a0c <_vfprintf_r+0x120c>
    80203bb0:	b94077e1 	ldr	w1, [sp, #116]
    80203bb4:	6b1a017f 	cmp	w11, w26
    80203bb8:	1a9aa163 	csel	w3, w11, w26, ge	// ge = tcont
    80203bbc:	0b030021 	add	w1, w1, w3
    80203bc0:	b90077e1 	str	w1, [sp, #116]
    80203bc4:	b5002300 	cbnz	x0, 80204024 <_vfprintf_r+0x824>
    80203bc8:	b9019bff 	str	wzr, [sp, #408]
    80203bcc:	b40000d9 	cbz	x25, 80203be4 <_vfprintf_r+0x3e4>
    80203bd0:	aa1903e1 	mov	x1, x25
    80203bd4:	aa1303e0 	mov	x0, x19
    80203bd8:	f90047ea 	str	x10, [sp, #136]
    80203bdc:	94002309 	bl	8020c800 <_free_r>
    80203be0:	f94047ea 	ldr	x10, [sp, #136]
    80203be4:	aa1603fc 	mov	x28, x22
    80203be8:	17ffff4b 	b	80203914 <_vfprintf_r+0x114>
    80203bec:	5100c100 	sub	w0, w8, #0x30
    80203bf0:	52800018 	mov	w24, #0x0                   	// #0
    80203bf4:	38401748 	ldrb	w8, [x26], #1
    80203bf8:	0b180b0b 	add	w11, w24, w24, lsl #2
    80203bfc:	0b0b0418 	add	w24, w0, w11, lsl #1
    80203c00:	5100c100 	sub	w0, w8, #0x30
    80203c04:	7100241f 	cmp	w0, #0x9
    80203c08:	54ffff69 	b.ls	80203bf4 <_vfprintf_r+0x3f4>  // b.plast
    80203c0c:	17ffff99 	b	80203a70 <_vfprintf_r+0x270>
    80203c10:	b0000064 	adrp	x4, 80210000 <__trunctfdf2+0xc0>
    80203c14:	b9419be1 	ldr	w1, [sp, #408]
    80203c18:	91234084 	add	x4, x4, #0x8d0
    80203c1c:	710040ff 	cmp	w7, #0x10
    80203c20:	5400058d 	b.le	80203cd0 <_vfprintf_r+0x4d0>
    80203c24:	aa1c03e2 	mov	x2, x28
    80203c28:	d280020d 	mov	x13, #0x10                  	// #16
    80203c2c:	aa0a03fc 	mov	x28, x10
    80203c30:	b900bbe9 	str	w9, [sp, #184]
    80203c34:	b900c3e8 	str	w8, [sp, #192]
    80203c38:	b900cbeb 	str	w11, [sp, #200]
    80203c3c:	b900d3f7 	str	w23, [sp, #208]
    80203c40:	2a0703f7 	mov	w23, w7
    80203c44:	b900dbf8 	str	w24, [sp, #216]
    80203c48:	aa0403f8 	mov	x24, x4
    80203c4c:	14000004 	b	80203c5c <_vfprintf_r+0x45c>
    80203c50:	510042f7 	sub	w23, w23, #0x10
    80203c54:	710042ff 	cmp	w23, #0x10
    80203c58:	540002ad 	b.le	80203cac <_vfprintf_r+0x4ac>
    80203c5c:	91004000 	add	x0, x0, #0x10
    80203c60:	11000421 	add	w1, w1, #0x1
    80203c64:	a9003458 	stp	x24, x13, [x2]
    80203c68:	91004042 	add	x2, x2, #0x10
    80203c6c:	b9019be1 	str	w1, [sp, #408]
    80203c70:	f900d3e0 	str	x0, [sp, #416]
    80203c74:	71001c3f 	cmp	w1, #0x7
    80203c78:	54fffecd 	b.le	80203c50 <_vfprintf_r+0x450>
    80203c7c:	910643e2 	add	x2, sp, #0x190
    80203c80:	aa1503e1 	mov	x1, x21
    80203c84:	aa1303e0 	mov	x0, x19
    80203c88:	94000c1a 	bl	80206cf0 <__sprint_r>
    80203c8c:	35001da0 	cbnz	w0, 80204040 <_vfprintf_r+0x840>
    80203c90:	510042f7 	sub	w23, w23, #0x10
    80203c94:	b9419be1 	ldr	w1, [sp, #408]
    80203c98:	f940d3e0 	ldr	x0, [sp, #416]
    80203c9c:	aa1603e2 	mov	x2, x22
    80203ca0:	d280020d 	mov	x13, #0x10                  	// #16
    80203ca4:	710042ff 	cmp	w23, #0x10
    80203ca8:	54fffdac 	b.gt	80203c5c <_vfprintf_r+0x45c>
    80203cac:	2a1703e7 	mov	w7, w23
    80203cb0:	aa1803e4 	mov	x4, x24
    80203cb4:	b940bbe9 	ldr	w9, [sp, #184]
    80203cb8:	aa1c03ea 	mov	x10, x28
    80203cbc:	b940c3e8 	ldr	w8, [sp, #192]
    80203cc0:	aa0203fc 	mov	x28, x2
    80203cc4:	b940cbeb 	ldr	w11, [sp, #200]
    80203cc8:	b940d3f7 	ldr	w23, [sp, #208]
    80203ccc:	b940dbf8 	ldr	w24, [sp, #216]
    80203cd0:	93407ce7 	sxtw	x7, w7
    80203cd4:	11000421 	add	w1, w1, #0x1
    80203cd8:	8b070000 	add	x0, x0, x7
    80203cdc:	a9001f84 	stp	x4, x7, [x28]
    80203ce0:	9100439c 	add	x28, x28, #0x10
    80203ce4:	b9019be1 	str	w1, [sp, #408]
    80203ce8:	f900d3e0 	str	x0, [sp, #416]
    80203cec:	71001c3f 	cmp	w1, #0x7
    80203cf0:	54fff42d 	b.le	80203b74 <_vfprintf_r+0x374>
    80203cf4:	910643e2 	add	x2, sp, #0x190
    80203cf8:	aa1503e1 	mov	x1, x21
    80203cfc:	aa1303e0 	mov	x0, x19
    80203d00:	b900bbe9 	str	w9, [sp, #184]
    80203d04:	b900c3e8 	str	w8, [sp, #192]
    80203d08:	b900cbeb 	str	w11, [sp, #200]
    80203d0c:	f9006bea 	str	x10, [sp, #208]
    80203d10:	94000bf8 	bl	80206cf0 <__sprint_r>
    80203d14:	35001960 	cbnz	w0, 80204040 <_vfprintf_r+0x840>
    80203d18:	b940bbe9 	ldr	w9, [sp, #184]
    80203d1c:	aa1603fc 	mov	x28, x22
    80203d20:	f9406bea 	ldr	x10, [sp, #208]
    80203d24:	f940d3e0 	ldr	x0, [sp, #416]
    80203d28:	b940c3e8 	ldr	w8, [sp, #192]
    80203d2c:	b940cbeb 	ldr	w11, [sp, #200]
    80203d30:	3647f249 	tbz	w9, #8, 80203b78 <_vfprintf_r+0x378>
    80203d34:	d503201f 	nop
    80203d38:	7101951f 	cmp	w8, #0x65
    80203d3c:	5400252d 	b.le	802041e0 <_vfprintf_r+0x9e0>
    80203d40:	1e602108 	fcmp	d8, #0.0
    80203d44:	54001001 	b.ne	80203f44 <_vfprintf_r+0x744>  // b.any
    80203d48:	b9419be1 	ldr	w1, [sp, #408]
    80203d4c:	91000400 	add	x0, x0, #0x1
    80203d50:	b0000062 	adrp	x2, 80210000 <__trunctfdf2+0xc0>
    80203d54:	d2800024 	mov	x4, #0x1                   	// #1
    80203d58:	9114e042 	add	x2, x2, #0x538
    80203d5c:	11000421 	add	w1, w1, #0x1
    80203d60:	a9001382 	stp	x2, x4, [x28]
    80203d64:	9100439c 	add	x28, x28, #0x10
    80203d68:	b9019be1 	str	w1, [sp, #408]
    80203d6c:	f900d3e0 	str	x0, [sp, #416]
    80203d70:	71001c3f 	cmp	w1, #0x7
    80203d74:	5400b08c 	b.gt	80205384 <_vfprintf_r+0x1b84>
    80203d78:	b94097e2 	ldr	w2, [sp, #148]
    80203d7c:	b9416be1 	ldr	w1, [sp, #360]
    80203d80:	6b02003f 	cmp	w1, w2
    80203d84:	54007baa 	b.ge	80204cf8 <_vfprintf_r+0x14f8>  // b.tcont
    80203d88:	a94a8fe2 	ldp	x2, x3, [sp, #168]
    80203d8c:	a9000b83 	stp	x3, x2, [x28]
    80203d90:	b9419be1 	ldr	w1, [sp, #408]
    80203d94:	9100439c 	add	x28, x28, #0x10
    80203d98:	11000421 	add	w1, w1, #0x1
    80203d9c:	b9019be1 	str	w1, [sp, #408]
    80203da0:	8b020000 	add	x0, x0, x2
    80203da4:	f900d3e0 	str	x0, [sp, #416]
    80203da8:	71001c3f 	cmp	w1, #0x7
    80203dac:	540088ec 	b.gt	80204ec8 <_vfprintf_r+0x16c8>
    80203db0:	b94097e1 	ldr	w1, [sp, #148]
    80203db4:	51000437 	sub	w23, w1, #0x1
    80203db8:	710002ff 	cmp	w23, #0x0
    80203dbc:	54ffef2d 	b.le	80203ba0 <_vfprintf_r+0x3a0>
    80203dc0:	b0000064 	adrp	x4, 80210000 <__trunctfdf2+0xc0>
    80203dc4:	b9419be1 	ldr	w1, [sp, #408]
    80203dc8:	91234084 	add	x4, x4, #0x8d0
    80203dcc:	710042ff 	cmp	w23, #0x10
    80203dd0:	5400bc4d 	b.le	80205558 <_vfprintf_r+0x1d58>
    80203dd4:	aa1c03e2 	mov	x2, x28
    80203dd8:	aa0403f8 	mov	x24, x4
    80203ddc:	aa0a03fc 	mov	x28, x10
    80203de0:	d280021b 	mov	x27, #0x10                  	// #16
    80203de4:	b9008be9 	str	w9, [sp, #136]
    80203de8:	b9009beb 	str	w11, [sp, #152]
    80203dec:	14000004 	b	80203dfc <_vfprintf_r+0x5fc>
    80203df0:	510042f7 	sub	w23, w23, #0x10
    80203df4:	710042ff 	cmp	w23, #0x10
    80203df8:	5400ba6d 	b.le	80205544 <_vfprintf_r+0x1d44>
    80203dfc:	91004000 	add	x0, x0, #0x10
    80203e00:	11000421 	add	w1, w1, #0x1
    80203e04:	a9006c58 	stp	x24, x27, [x2]
    80203e08:	91004042 	add	x2, x2, #0x10
    80203e0c:	b9019be1 	str	w1, [sp, #408]
    80203e10:	f900d3e0 	str	x0, [sp, #416]
    80203e14:	71001c3f 	cmp	w1, #0x7
    80203e18:	54fffecd 	b.le	80203df0 <_vfprintf_r+0x5f0>
    80203e1c:	910643e2 	add	x2, sp, #0x190
    80203e20:	aa1503e1 	mov	x1, x21
    80203e24:	aa1303e0 	mov	x0, x19
    80203e28:	94000bb2 	bl	80206cf0 <__sprint_r>
    80203e2c:	350010a0 	cbnz	w0, 80204040 <_vfprintf_r+0x840>
    80203e30:	f940d3e0 	ldr	x0, [sp, #416]
    80203e34:	aa1603e2 	mov	x2, x22
    80203e38:	b9419be1 	ldr	w1, [sp, #408]
    80203e3c:	17ffffed 	b	80203df0 <_vfprintf_r+0x5f0>
    80203e40:	b000006d 	adrp	x13, 80210000 <__trunctfdf2+0xc0>
    80203e44:	b9419be1 	ldr	w1, [sp, #408]
    80203e48:	912381ad 	add	x13, x13, #0x8e0
    80203e4c:	7100409f 	cmp	w4, #0x10
    80203e50:	5400064d 	b.le	80203f18 <_vfprintf_r+0x718>
    80203e54:	aa1c03e2 	mov	x2, x28
    80203e58:	d280020f 	mov	x15, #0x10                  	// #16
    80203e5c:	aa0a03fc 	mov	x28, x10
    80203e60:	b900bbf2 	str	w18, [sp, #184]
    80203e64:	b900c3ee 	str	w14, [sp, #192]
    80203e68:	b900cbe9 	str	w9, [sp, #200]
    80203e6c:	b900d3e8 	str	w8, [sp, #208]
    80203e70:	b900dbeb 	str	w11, [sp, #216]
    80203e74:	b90113e7 	str	w7, [sp, #272]
    80203e78:	b9011bf7 	str	w23, [sp, #280]
    80203e7c:	2a0403f7 	mov	w23, w4
    80203e80:	b90123f8 	str	w24, [sp, #288]
    80203e84:	aa0d03f8 	mov	x24, x13
    80203e88:	14000004 	b	80203e98 <_vfprintf_r+0x698>
    80203e8c:	510042f7 	sub	w23, w23, #0x10
    80203e90:	710042ff 	cmp	w23, #0x10
    80203e94:	540002ad 	b.le	80203ee8 <_vfprintf_r+0x6e8>
    80203e98:	91004000 	add	x0, x0, #0x10
    80203e9c:	11000421 	add	w1, w1, #0x1
    80203ea0:	a9003c58 	stp	x24, x15, [x2]
    80203ea4:	91004042 	add	x2, x2, #0x10
    80203ea8:	b9019be1 	str	w1, [sp, #408]
    80203eac:	f900d3e0 	str	x0, [sp, #416]
    80203eb0:	71001c3f 	cmp	w1, #0x7
    80203eb4:	54fffecd 	b.le	80203e8c <_vfprintf_r+0x68c>
    80203eb8:	910643e2 	add	x2, sp, #0x190
    80203ebc:	aa1503e1 	mov	x1, x21
    80203ec0:	aa1303e0 	mov	x0, x19
    80203ec4:	94000b8b 	bl	80206cf0 <__sprint_r>
    80203ec8:	35000bc0 	cbnz	w0, 80204040 <_vfprintf_r+0x840>
    80203ecc:	510042f7 	sub	w23, w23, #0x10
    80203ed0:	b9419be1 	ldr	w1, [sp, #408]
    80203ed4:	f940d3e0 	ldr	x0, [sp, #416]
    80203ed8:	aa1603e2 	mov	x2, x22
    80203edc:	d280020f 	mov	x15, #0x10                  	// #16
    80203ee0:	710042ff 	cmp	w23, #0x10
    80203ee4:	54fffdac 	b.gt	80203e98 <_vfprintf_r+0x698>
    80203ee8:	2a1703e4 	mov	w4, w23
    80203eec:	aa1803ed 	mov	x13, x24
    80203ef0:	b940bbf2 	ldr	w18, [sp, #184]
    80203ef4:	aa1c03ea 	mov	x10, x28
    80203ef8:	b940c3ee 	ldr	w14, [sp, #192]
    80203efc:	aa0203fc 	mov	x28, x2
    80203f00:	b940cbe9 	ldr	w9, [sp, #200]
    80203f04:	b940d3e8 	ldr	w8, [sp, #208]
    80203f08:	b940dbeb 	ldr	w11, [sp, #216]
    80203f0c:	b94113e7 	ldr	w7, [sp, #272]
    80203f10:	b9411bf7 	ldr	w23, [sp, #280]
    80203f14:	b94123f8 	ldr	w24, [sp, #288]
    80203f18:	93407c84 	sxtw	x4, w4
    80203f1c:	11000421 	add	w1, w1, #0x1
    80203f20:	8b040000 	add	x0, x0, x4
    80203f24:	a900138d 	stp	x13, x4, [x28]
    80203f28:	b9019be1 	str	w1, [sp, #408]
    80203f2c:	f900d3e0 	str	x0, [sp, #416]
    80203f30:	71001c3f 	cmp	w1, #0x7
    80203f34:	540092ac 	b.gt	80205188 <_vfprintf_r+0x1988>
    80203f38:	39457fe1 	ldrb	w1, [sp, #351]
    80203f3c:	9100439c 	add	x28, x28, #0x10
    80203f40:	17fffeee 	b	80203af8 <_vfprintf_r+0x2f8>
    80203f44:	b9416be2 	ldr	w2, [sp, #360]
    80203f48:	7100005f 	cmp	w2, #0x0
    80203f4c:	54005e4c 	b.gt	80204b14 <_vfprintf_r+0x1314>
    80203f50:	b9419be1 	ldr	w1, [sp, #408]
    80203f54:	91000400 	add	x0, x0, #0x1
    80203f58:	b0000064 	adrp	x4, 80210000 <__trunctfdf2+0xc0>
    80203f5c:	d2800027 	mov	x7, #0x1                   	// #1
    80203f60:	9114e084 	add	x4, x4, #0x538
    80203f64:	11000421 	add	w1, w1, #0x1
    80203f68:	a9001f84 	stp	x4, x7, [x28]
    80203f6c:	9100439c 	add	x28, x28, #0x10
    80203f70:	b9019be1 	str	w1, [sp, #408]
    80203f74:	f900d3e0 	str	x0, [sp, #416]
    80203f78:	71001c3f 	cmp	w1, #0x7
    80203f7c:	540107cc 	b.gt	80206074 <_vfprintf_r+0x2874>
    80203f80:	b94097e1 	ldr	w1, [sp, #148]
    80203f84:	2a020021 	orr	w1, w1, w2
    80203f88:	3400d761 	cbz	w1, 80205a74 <_vfprintf_r+0x2274>
    80203f8c:	a94a93e3 	ldp	x3, x4, [sp, #168]
    80203f90:	a9000f84 	stp	x4, x3, [x28]
    80203f94:	b9419be1 	ldr	w1, [sp, #408]
    80203f98:	91004386 	add	x6, x28, #0x10
    80203f9c:	11000421 	add	w1, w1, #0x1
    80203fa0:	b9019be1 	str	w1, [sp, #408]
    80203fa4:	8b000060 	add	x0, x3, x0
    80203fa8:	f900d3e0 	str	x0, [sp, #416]
    80203fac:	71001c3f 	cmp	w1, #0x7
    80203fb0:	5400d78c 	b.gt	80205aa0 <_vfprintf_r+0x22a0>
    80203fb4:	37f91e42 	tbnz	w2, #31, 8020637c <_vfprintf_r+0x2b7c>
    80203fb8:	b98097e2 	ldrsw	x2, [sp, #148]
    80203fbc:	11000421 	add	w1, w1, #0x1
    80203fc0:	a90008db 	stp	x27, x2, [x6]
    80203fc4:	910040dc 	add	x28, x6, #0x10
    80203fc8:	8b000040 	add	x0, x2, x0
    80203fcc:	b9019be1 	str	w1, [sp, #408]
    80203fd0:	f900d3e0 	str	x0, [sp, #416]
    80203fd4:	71001c3f 	cmp	w1, #0x7
    80203fd8:	54ffde4d 	b.le	80203ba0 <_vfprintf_r+0x3a0>
    80203fdc:	d503201f 	nop
    80203fe0:	910643e2 	add	x2, sp, #0x190
    80203fe4:	aa1503e1 	mov	x1, x21
    80203fe8:	aa1303e0 	mov	x0, x19
    80203fec:	b9008be9 	str	w9, [sp, #136]
    80203ff0:	b9009beb 	str	w11, [sp, #152]
    80203ff4:	f9005fea 	str	x10, [sp, #184]
    80203ff8:	94000b3e 	bl	80206cf0 <__sprint_r>
    80203ffc:	35000220 	cbnz	w0, 80204040 <_vfprintf_r+0x840>
    80204000:	f9405fea 	ldr	x10, [sp, #184]
    80204004:	aa1603fc 	mov	x28, x22
    80204008:	f940d3e0 	ldr	x0, [sp, #416]
    8020400c:	b9408be9 	ldr	w9, [sp, #136]
    80204010:	b9409beb 	ldr	w11, [sp, #152]
    80204014:	17fffee3 	b	80203ba0 <_vfprintf_r+0x3a0>
    80204018:	39400348 	ldrb	w8, [x26]
    8020401c:	321c02f7 	orr	w23, w23, #0x10
    80204020:	17fffe93 	b	80203a6c <_vfprintf_r+0x26c>
    80204024:	910643e2 	add	x2, sp, #0x190
    80204028:	aa1503e1 	mov	x1, x21
    8020402c:	aa1303e0 	mov	x0, x19
    80204030:	f90047ea 	str	x10, [sp, #136]
    80204034:	94000b2f 	bl	80206cf0 <__sprint_r>
    80204038:	f94047ea 	ldr	x10, [sp, #136]
    8020403c:	34ffdc60 	cbz	w0, 80203bc8 <_vfprintf_r+0x3c8>
    80204040:	aa1903e1 	mov	x1, x25
    80204044:	b4000061 	cbz	x1, 80204050 <_vfprintf_r+0x850>
    80204048:	aa1303e0 	mov	x0, x19
    8020404c:	940021ed 	bl	8020c800 <_free_r>
    80204050:	79c022a0 	ldrsh	w0, [x21, #16]
    80204054:	b940b2a1 	ldr	w1, [x21, #176]
    80204058:	36001781 	tbz	w1, #0, 80204348 <_vfprintf_r+0xb48>
    8020405c:	a9446bf9 	ldp	x25, x26, [sp, #64]
    80204060:	a94573fb 	ldp	x27, x28, [sp, #80]
    80204064:	6d4627e8 	ldp	d8, d9, [sp, #96]
    80204068:	373117e0 	tbnz	w0, #6, 80206364 <_vfprintf_r+0x2b64>
    8020406c:	a9407bfd 	ldp	x29, x30, [sp]
    80204070:	a94153f3 	ldp	x19, x20, [sp, #16]
    80204074:	a9425bf5 	ldp	x21, x22, [sp, #32]
    80204078:	a94363f7 	ldp	x23, x24, [sp, #48]
    8020407c:	b94077e0 	ldr	w0, [sp, #116]
    80204080:	910a43ff 	add	sp, sp, #0x290
    80204084:	d65f03c0 	ret
    80204088:	2a0003fa 	mov	w26, w0
    8020408c:	cb1802e0 	sub	x0, x23, x24
    80204090:	aa1803ea 	mov	x10, x24
    80204094:	2a0003fb 	mov	w27, w0
    80204098:	34ffcd60 	cbz	w0, 80203a44 <_vfprintf_r+0x244>
    8020409c:	17fffe5b 	b	80203a08 <_vfprintf_r+0x208>
    802040a0:	4b1a016d 	sub	w13, w11, w26
    802040a4:	710001bf 	cmp	w13, #0x0
    802040a8:	54ffd60d 	b.le	80203b68 <_vfprintf_r+0x368>
    802040ac:	90000064 	adrp	x4, 80210000 <__trunctfdf2+0xc0>
    802040b0:	b9419be1 	ldr	w1, [sp, #408]
    802040b4:	91234084 	add	x4, x4, #0x8d0
    802040b8:	710041bf 	cmp	w13, #0x10
    802040bc:	540005cd 	b.le	80204174 <_vfprintf_r+0x974>
    802040c0:	aa1c03e2 	mov	x2, x28
    802040c4:	d280020e 	mov	x14, #0x10                  	// #16
    802040c8:	aa0a03fc 	mov	x28, x10
    802040cc:	b900bbe9 	str	w9, [sp, #184]
    802040d0:	b900c3e8 	str	w8, [sp, #192]
    802040d4:	b900cbeb 	str	w11, [sp, #200]
    802040d8:	b900d3e7 	str	w7, [sp, #208]
    802040dc:	b900dbf7 	str	w23, [sp, #216]
    802040e0:	2a0d03f7 	mov	w23, w13
    802040e4:	b90113f8 	str	w24, [sp, #272]
    802040e8:	aa0403f8 	mov	x24, x4
    802040ec:	14000004 	b	802040fc <_vfprintf_r+0x8fc>
    802040f0:	510042f7 	sub	w23, w23, #0x10
    802040f4:	710042ff 	cmp	w23, #0x10
    802040f8:	540002ad 	b.le	8020414c <_vfprintf_r+0x94c>
    802040fc:	91004000 	add	x0, x0, #0x10
    80204100:	11000421 	add	w1, w1, #0x1
    80204104:	a9003858 	stp	x24, x14, [x2]
    80204108:	91004042 	add	x2, x2, #0x10
    8020410c:	b9019be1 	str	w1, [sp, #408]
    80204110:	f900d3e0 	str	x0, [sp, #416]
    80204114:	71001c3f 	cmp	w1, #0x7
    80204118:	54fffecd 	b.le	802040f0 <_vfprintf_r+0x8f0>
    8020411c:	910643e2 	add	x2, sp, #0x190
    80204120:	aa1503e1 	mov	x1, x21
    80204124:	aa1303e0 	mov	x0, x19
    80204128:	94000af2 	bl	80206cf0 <__sprint_r>
    8020412c:	35fff8a0 	cbnz	w0, 80204040 <_vfprintf_r+0x840>
    80204130:	510042f7 	sub	w23, w23, #0x10
    80204134:	b9419be1 	ldr	w1, [sp, #408]
    80204138:	f940d3e0 	ldr	x0, [sp, #416]
    8020413c:	aa1603e2 	mov	x2, x22
    80204140:	d280020e 	mov	x14, #0x10                  	// #16
    80204144:	710042ff 	cmp	w23, #0x10
    80204148:	54fffdac 	b.gt	802040fc <_vfprintf_r+0x8fc>
    8020414c:	2a1703ed 	mov	w13, w23
    80204150:	aa1803e4 	mov	x4, x24
    80204154:	b940bbe9 	ldr	w9, [sp, #184]
    80204158:	aa1c03ea 	mov	x10, x28
    8020415c:	b940c3e8 	ldr	w8, [sp, #192]
    80204160:	aa0203fc 	mov	x28, x2
    80204164:	b940cbeb 	ldr	w11, [sp, #200]
    80204168:	b940d3e7 	ldr	w7, [sp, #208]
    8020416c:	b940dbf7 	ldr	w23, [sp, #216]
    80204170:	b94113f8 	ldr	w24, [sp, #272]
    80204174:	93407dad 	sxtw	x13, w13
    80204178:	11000421 	add	w1, w1, #0x1
    8020417c:	8b0d0000 	add	x0, x0, x13
    80204180:	a9003784 	stp	x4, x13, [x28]
    80204184:	9100439c 	add	x28, x28, #0x10
    80204188:	b9019be1 	str	w1, [sp, #408]
    8020418c:	f900d3e0 	str	x0, [sp, #416]
    80204190:	71001c3f 	cmp	w1, #0x7
    80204194:	54ffcead 	b.le	80203b68 <_vfprintf_r+0x368>
    80204198:	910643e2 	add	x2, sp, #0x190
    8020419c:	aa1503e1 	mov	x1, x21
    802041a0:	aa1303e0 	mov	x0, x19
    802041a4:	b900bbe9 	str	w9, [sp, #184]
    802041a8:	b900c3e8 	str	w8, [sp, #192]
    802041ac:	b900cbeb 	str	w11, [sp, #200]
    802041b0:	b900d3e7 	str	w7, [sp, #208]
    802041b4:	f9006fea 	str	x10, [sp, #216]
    802041b8:	94000ace 	bl	80206cf0 <__sprint_r>
    802041bc:	35fff420 	cbnz	w0, 80204040 <_vfprintf_r+0x840>
    802041c0:	f9406fea 	ldr	x10, [sp, #216]
    802041c4:	aa1603fc 	mov	x28, x22
    802041c8:	f940d3e0 	ldr	x0, [sp, #416]
    802041cc:	b940bbe9 	ldr	w9, [sp, #184]
    802041d0:	b940c3e8 	ldr	w8, [sp, #192]
    802041d4:	b940cbeb 	ldr	w11, [sp, #200]
    802041d8:	b940d3e7 	ldr	w7, [sp, #208]
    802041dc:	17fffe63 	b	80203b68 <_vfprintf_r+0x368>
    802041e0:	b9419be1 	ldr	w1, [sp, #408]
    802041e4:	91000400 	add	x0, x0, #0x1
    802041e8:	b94097e3 	ldr	w3, [sp, #148]
    802041ec:	91004382 	add	x2, x28, #0x10
    802041f0:	11000421 	add	w1, w1, #0x1
    802041f4:	7100047f 	cmp	w3, #0x1
    802041f8:	5400118d 	b.le	80204428 <_vfprintf_r+0xc28>
    802041fc:	d2800024 	mov	x4, #0x1                   	// #1
    80204200:	a900139b 	stp	x27, x4, [x28]
    80204204:	b9019be1 	str	w1, [sp, #408]
    80204208:	f900d3e0 	str	x0, [sp, #416]
    8020420c:	71001c3f 	cmp	w1, #0x7
    80204210:	5400528c 	b.gt	80204c60 <_vfprintf_r+0x1460>
    80204214:	a94a93e3 	ldp	x3, x4, [sp, #168]
    80204218:	11000421 	add	w1, w1, #0x1
    8020421c:	a9000c44 	stp	x4, x3, [x2]
    80204220:	91004042 	add	x2, x2, #0x10
    80204224:	b9019be1 	str	w1, [sp, #408]
    80204228:	8b030000 	add	x0, x0, x3
    8020422c:	f900d3e0 	str	x0, [sp, #416]
    80204230:	71001c3f 	cmp	w1, #0x7
    80204234:	5400534c 	b.gt	80204c9c <_vfprintf_r+0x149c>
    80204238:	1e602108 	fcmp	d8, #0.0
    8020423c:	b94097e3 	ldr	w3, [sp, #148]
    80204240:	51000477 	sub	w23, w3, #0x1
    80204244:	540011e0 	b.eq	80204480 <_vfprintf_r+0xc80>  // b.none
    80204248:	93407ef7 	sxtw	x23, w23
    8020424c:	11000421 	add	w1, w1, #0x1
    80204250:	8b170000 	add	x0, x0, x23
    80204254:	b9019be1 	str	w1, [sp, #408]
    80204258:	f900d3e0 	str	x0, [sp, #416]
    8020425c:	91000765 	add	x5, x27, #0x1
    80204260:	f9000045 	str	x5, [x2]
    80204264:	f9000457 	str	x23, [x2, #8]
    80204268:	71001c3f 	cmp	w1, #0x7
    8020426c:	5400610c 	b.gt	80204e8c <_vfprintf_r+0x168c>
    80204270:	91004042 	add	x2, x2, #0x10
    80204274:	b980f3e4 	ldrsw	x4, [sp, #240]
    80204278:	11000421 	add	w1, w1, #0x1
    8020427c:	9105c3e5 	add	x5, sp, #0x170
    80204280:	a9001045 	stp	x5, x4, [x2]
    80204284:	8b000080 	add	x0, x4, x0
    80204288:	b9019be1 	str	w1, [sp, #408]
    8020428c:	9100405c 	add	x28, x2, #0x10
    80204290:	f900d3e0 	str	x0, [sp, #416]
    80204294:	71001c3f 	cmp	w1, #0x7
    80204298:	54ffc84d 	b.le	80203ba0 <_vfprintf_r+0x3a0>
    8020429c:	910643e2 	add	x2, sp, #0x190
    802042a0:	aa1503e1 	mov	x1, x21
    802042a4:	aa1303e0 	mov	x0, x19
    802042a8:	b9008be9 	str	w9, [sp, #136]
    802042ac:	b9009beb 	str	w11, [sp, #152]
    802042b0:	f9005fea 	str	x10, [sp, #184]
    802042b4:	94000a8f 	bl	80206cf0 <__sprint_r>
    802042b8:	35ffec40 	cbnz	w0, 80204040 <_vfprintf_r+0x840>
    802042bc:	f9405fea 	ldr	x10, [sp, #184]
    802042c0:	aa1603fc 	mov	x28, x22
    802042c4:	f940d3e0 	ldr	x0, [sp, #416]
    802042c8:	b9408be9 	ldr	w9, [sp, #136]
    802042cc:	b9409beb 	ldr	w11, [sp, #152]
    802042d0:	17fffe34 	b	80203ba0 <_vfprintf_r+0x3a0>
    802042d4:	910643e2 	add	x2, sp, #0x190
    802042d8:	aa1503e1 	mov	x1, x21
    802042dc:	aa1303e0 	mov	x0, x19
    802042e0:	94000a84 	bl	80206cf0 <__sprint_r>
    802042e4:	35ffeb60 	cbnz	w0, 80204050 <_vfprintf_r+0x850>
    802042e8:	aa1603fc 	mov	x28, x22
    802042ec:	17fffdd2 	b	80203a34 <_vfprintf_r+0x234>
    802042f0:	910643e2 	add	x2, sp, #0x190
    802042f4:	aa1503e1 	mov	x1, x21
    802042f8:	aa1303e0 	mov	x0, x19
    802042fc:	b900bbf2 	str	w18, [sp, #184]
    80204300:	b900c3ee 	str	w14, [sp, #192]
    80204304:	b900cbe9 	str	w9, [sp, #200]
    80204308:	b900d3e8 	str	w8, [sp, #208]
    8020430c:	b900dbeb 	str	w11, [sp, #216]
    80204310:	b90113e7 	str	w7, [sp, #272]
    80204314:	f9008fea 	str	x10, [sp, #280]
    80204318:	94000a76 	bl	80206cf0 <__sprint_r>
    8020431c:	35ffe920 	cbnz	w0, 80204040 <_vfprintf_r+0x840>
    80204320:	f9408fea 	ldr	x10, [sp, #280]
    80204324:	aa1603fc 	mov	x28, x22
    80204328:	f940d3e0 	ldr	x0, [sp, #416]
    8020432c:	b940bbf2 	ldr	w18, [sp, #184]
    80204330:	b940c3ee 	ldr	w14, [sp, #192]
    80204334:	b940cbe9 	ldr	w9, [sp, #200]
    80204338:	b940d3e8 	ldr	w8, [sp, #208]
    8020433c:	b940dbeb 	ldr	w11, [sp, #216]
    80204340:	b94113e7 	ldr	w7, [sp, #272]
    80204344:	17fffdfa 	b	80203b2c <_vfprintf_r+0x32c>
    80204348:	374fe8a0 	tbnz	w0, #9, 8020405c <_vfprintf_r+0x85c>
    8020434c:	f94052a0 	ldr	x0, [x21, #160]
    80204350:	9400142c 	bl	80209400 <__retarget_lock_release_recursive>
    80204354:	79c022a0 	ldrsh	w0, [x21, #16]
    80204358:	17ffff41 	b	8020405c <_vfprintf_r+0x85c>
    8020435c:	b940f7e0 	ldr	w0, [sp, #244]
    80204360:	2a1703e9 	mov	w9, w23
    80204364:	2a1803eb 	mov	w11, w24
    80204368:	2a1903e7 	mov	w7, w25
    8020436c:	aa1a03ea 	mov	x10, x26
    80204370:	36184c89 	tbz	w9, #3, 80204d00 <_vfprintf_r+0x1500>
    80204374:	37f8d200 	tbnz	w0, #31, 80205db4 <_vfprintf_r+0x25b4>
    80204378:	f9403fe0 	ldr	x0, [sp, #120]
    8020437c:	91003c00 	add	x0, x0, #0xf
    80204380:	927cec00 	and	x0, x0, #0xfffffffffffffff0
    80204384:	91004001 	add	x1, x0, #0x10
    80204388:	f9003fe1 	str	x1, [sp, #120]
    8020438c:	3dc00000 	ldr	q0, [x0]
    80204390:	b9008be9 	str	w9, [sp, #136]
    80204394:	b9009be8 	str	w8, [sp, #152]
    80204398:	b900bbeb 	str	w11, [sp, #184]
    8020439c:	b900c3e7 	str	w7, [sp, #192]
    802043a0:	f90067ea 	str	x10, [sp, #200]
    802043a4:	94002ee7 	bl	8020ff40 <__trunctfdf2>
    802043a8:	f94067ea 	ldr	x10, [sp, #200]
    802043ac:	1e604008 	fmov	d8, d0
    802043b0:	b9408be9 	ldr	w9, [sp, #136]
    802043b4:	b9409be8 	ldr	w8, [sp, #152]
    802043b8:	b940bbeb 	ldr	w11, [sp, #184]
    802043bc:	b940c3e7 	ldr	w7, [sp, #192]
    802043c0:	1e60c100 	fabs	d0, d8
    802043c4:	92f00200 	mov	x0, #0x7fefffffffffffff    	// #9218868437227405311
    802043c8:	9e670001 	fmov	d1, x0
    802043cc:	1e612000 	fcmp	d0, d1
    802043d0:	5400710d 	b.le	802051f0 <_vfprintf_r+0x19f0>
    802043d4:	1e602118 	fcmpe	d8, #0.0
    802043d8:	5400ce64 	b.mi	80205da4 <_vfprintf_r+0x25a4>  // b.first
    802043dc:	39457fe1 	ldrb	w1, [sp, #351]
    802043e0:	90000060 	adrp	x0, 80210000 <__trunctfdf2+0xc0>
    802043e4:	90000065 	adrp	x5, 80210000 <__trunctfdf2+0xc0>
    802043e8:	71011d1f 	cmp	w8, #0x47
    802043ec:	91138000 	add	x0, x0, #0x4e0
    802043f0:	9113a0a5 	add	x5, x5, #0x4e8
    802043f4:	b9008bff 	str	wzr, [sp, #136]
    802043f8:	5280007a 	mov	w26, #0x3                   	// #3
    802043fc:	b9009bff 	str	wzr, [sp, #152]
    80204400:	12187929 	and	w9, w9, #0xffffff7f
    80204404:	9a80c0bb 	csel	x27, x5, x0, gt
    80204408:	2a1a03f7 	mov	w23, w26
    8020440c:	d2800019 	mov	x25, #0x0                   	// #0
    80204410:	52800007 	mov	w7, #0x0                   	// #0
    80204414:	52800018 	mov	w24, #0x0                   	// #0
    80204418:	34ffb5c1 	cbz	w1, 80203ad0 <_vfprintf_r+0x2d0>
    8020441c:	d503201f 	nop
    80204420:	1100075a 	add	w26, w26, #0x1
    80204424:	17fffdab 	b	80203ad0 <_vfprintf_r+0x2d0>
    80204428:	3707eea9 	tbnz	w9, #0, 802041fc <_vfprintf_r+0x9fc>
    8020442c:	d2800024 	mov	x4, #0x1                   	// #1
    80204430:	a900139b 	stp	x27, x4, [x28]
    80204434:	b9019be1 	str	w1, [sp, #408]
    80204438:	f900d3e0 	str	x0, [sp, #416]
    8020443c:	71001c3f 	cmp	w1, #0x7
    80204440:	54fff1ad 	b.le	80204274 <_vfprintf_r+0xa74>
    80204444:	910643e2 	add	x2, sp, #0x190
    80204448:	aa1503e1 	mov	x1, x21
    8020444c:	aa1303e0 	mov	x0, x19
    80204450:	b9008be9 	str	w9, [sp, #136]
    80204454:	b9009beb 	str	w11, [sp, #152]
    80204458:	f9005fea 	str	x10, [sp, #184]
    8020445c:	94000a25 	bl	80206cf0 <__sprint_r>
    80204460:	35ffdf00 	cbnz	w0, 80204040 <_vfprintf_r+0x840>
    80204464:	f9405fea 	ldr	x10, [sp, #184]
    80204468:	aa1603e2 	mov	x2, x22
    8020446c:	f940d3e0 	ldr	x0, [sp, #416]
    80204470:	b9408be9 	ldr	w9, [sp, #136]
    80204474:	b9409beb 	ldr	w11, [sp, #152]
    80204478:	b9419be1 	ldr	w1, [sp, #408]
    8020447c:	17ffff7e 	b	80204274 <_vfprintf_r+0xa74>
    80204480:	b94097e3 	ldr	w3, [sp, #148]
    80204484:	7100047f 	cmp	w3, #0x1
    80204488:	54ffef6d 	b.le	80204274 <_vfprintf_r+0xa74>
    8020448c:	90000064 	adrp	x4, 80210000 <__trunctfdf2+0xc0>
    80204490:	91234084 	add	x4, x4, #0x8d0
    80204494:	7100447f 	cmp	w3, #0x11
    80204498:	54004e8d 	b.le	80204e68 <_vfprintf_r+0x1668>
    8020449c:	2a0b03fc 	mov	w28, w11
    802044a0:	aa0403f8 	mov	x24, x4
    802044a4:	d280021b 	mov	x27, #0x10                  	// #16
    802044a8:	b9008be9 	str	w9, [sp, #136]
    802044ac:	f9004fea 	str	x10, [sp, #152]
    802044b0:	14000004 	b	802044c0 <_vfprintf_r+0xcc0>
    802044b4:	510042f7 	sub	w23, w23, #0x10
    802044b8:	710042ff 	cmp	w23, #0x10
    802044bc:	54004ced 	b.le	80204e58 <_vfprintf_r+0x1658>
    802044c0:	91004000 	add	x0, x0, #0x10
    802044c4:	11000421 	add	w1, w1, #0x1
    802044c8:	a9006c58 	stp	x24, x27, [x2]
    802044cc:	91004042 	add	x2, x2, #0x10
    802044d0:	b9019be1 	str	w1, [sp, #408]
    802044d4:	f900d3e0 	str	x0, [sp, #416]
    802044d8:	71001c3f 	cmp	w1, #0x7
    802044dc:	54fffecd 	b.le	802044b4 <_vfprintf_r+0xcb4>
    802044e0:	910643e2 	add	x2, sp, #0x190
    802044e4:	aa1503e1 	mov	x1, x21
    802044e8:	aa1303e0 	mov	x0, x19
    802044ec:	94000a01 	bl	80206cf0 <__sprint_r>
    802044f0:	35ffda80 	cbnz	w0, 80204040 <_vfprintf_r+0x840>
    802044f4:	f940d3e0 	ldr	x0, [sp, #416]
    802044f8:	aa1603e2 	mov	x2, x22
    802044fc:	b9419be1 	ldr	w1, [sp, #408]
    80204500:	17ffffed 	b	802044b4 <_vfprintf_r+0xcb4>
    80204504:	2a1703e9 	mov	w9, w23
    80204508:	2a1803eb 	mov	w11, w24
    8020450c:	aa1a03ea 	mov	x10, x26
    80204510:	71010d1f 	cmp	w8, #0x43
    80204514:	540054e0 	b.eq	80204fb0 <_vfprintf_r+0x17b0>  // b.none
    80204518:	372054c9 	tbnz	w9, #4, 80204fb0 <_vfprintf_r+0x17b0>
    8020451c:	b94093e0 	ldr	w0, [sp, #144]
    80204520:	37f8e1e0 	tbnz	w0, #31, 8020615c <_vfprintf_r+0x295c>
    80204524:	f9403fe0 	ldr	x0, [sp, #120]
    80204528:	91002c01 	add	x1, x0, #0xb
    8020452c:	927df021 	and	x1, x1, #0xfffffffffffffff8
    80204530:	f9003fe1 	str	x1, [sp, #120]
    80204534:	b9400000 	ldr	w0, [x0]
    80204538:	5280003a 	mov	w26, #0x1                   	// #1
    8020453c:	9106a3f8 	add	x24, sp, #0x1a8
    80204540:	2a1a03f7 	mov	w23, w26
    80204544:	3906a3e0 	strb	w0, [sp, #424]
    80204548:	aa1803fb 	mov	x27, x24
    8020454c:	52800001 	mov	w1, #0x0                   	// #0
    80204550:	d2800019 	mov	x25, #0x0                   	// #0
    80204554:	52800007 	mov	w7, #0x0                   	// #0
    80204558:	52800018 	mov	w24, #0x0                   	// #0
    8020455c:	b9008bff 	str	wzr, [sp, #136]
    80204560:	b9009bff 	str	wzr, [sp, #152]
    80204564:	39057fff 	strb	wzr, [sp, #351]
    80204568:	17fffd5a 	b	80203ad0 <_vfprintf_r+0x2d0>
    8020456c:	b94093e0 	ldr	w0, [sp, #144]
    80204570:	2a1703e9 	mov	w9, w23
    80204574:	2a1803eb 	mov	w11, w24
    80204578:	2a1903e7 	mov	w7, w25
    8020457c:	aa1a03ea 	mov	x10, x26
    80204580:	37f84460 	tbnz	w0, #31, 80204e0c <_vfprintf_r+0x160c>
    80204584:	f9403fe0 	ldr	x0, [sp, #120]
    80204588:	91003c01 	add	x1, x0, #0xf
    8020458c:	927df021 	and	x1, x1, #0xfffffffffffffff8
    80204590:	f9003fe1 	str	x1, [sp, #120]
    80204594:	f940001b 	ldr	x27, [x0]
    80204598:	39057fff 	strb	wzr, [sp, #351]
    8020459c:	b400841b 	cbz	x27, 8020561c <_vfprintf_r+0x1e1c>
    802045a0:	71014d1f 	cmp	w8, #0x53
    802045a4:	540070c0 	b.eq	802053bc <_vfprintf_r+0x1bbc>  // b.none
    802045a8:	121c0138 	and	w24, w9, #0x10
    802045ac:	37207089 	tbnz	w9, #4, 802053bc <_vfprintf_r+0x1bbc>
    802045b0:	37f8b247 	tbnz	w7, #31, 80205bf8 <_vfprintf_r+0x23f8>
    802045b4:	93407ce2 	sxtw	x2, w7
    802045b8:	aa1b03e0 	mov	x0, x27
    802045bc:	52800001 	mov	w1, #0x0                   	// #0
    802045c0:	b9008be7 	str	w7, [sp, #136]
    802045c4:	b9009be9 	str	w9, [sp, #152]
    802045c8:	b900bbeb 	str	w11, [sp, #184]
    802045cc:	f90063ea 	str	x10, [sp, #192]
    802045d0:	9400172c 	bl	8020a280 <memchr>
    802045d4:	f94063ea 	ldr	x10, [sp, #192]
    802045d8:	aa0003f9 	mov	x25, x0
    802045dc:	b9408be7 	ldr	w7, [sp, #136]
    802045e0:	b9409be9 	ldr	w9, [sp, #152]
    802045e4:	b940bbeb 	ldr	w11, [sp, #184]
    802045e8:	b4011040 	cbz	x0, 802067f0 <_vfprintf_r+0x2ff0>
    802045ec:	39457fe1 	ldrb	w1, [sp, #351]
    802045f0:	cb1b0003 	sub	x3, x0, x27
    802045f4:	b9008bff 	str	wzr, [sp, #136]
    802045f8:	7100007f 	cmp	w3, #0x0
    802045fc:	b9009bff 	str	wzr, [sp, #152]
    80204600:	2a0303f7 	mov	w23, w3
    80204604:	1a9fa07a 	csel	w26, w3, wzr, ge	// ge = tcont
    80204608:	52800007 	mov	w7, #0x0                   	// #0
    8020460c:	d2800019 	mov	x25, #0x0                   	// #0
    80204610:	52800e68 	mov	w8, #0x73                  	// #115
    80204614:	34ffa5e1 	cbz	w1, 80203ad0 <_vfprintf_r+0x2d0>
    80204618:	17ffff82 	b	80204420 <_vfprintf_r+0xc20>
    8020461c:	4b1803f8 	neg	w24, w24
    80204620:	f9003fe0 	str	x0, [sp, #120]
    80204624:	39400348 	ldrb	w8, [x26]
    80204628:	321e02f7 	orr	w23, w23, #0x4
    8020462c:	17fffd10 	b	80203a6c <_vfprintf_r+0x26c>
    80204630:	aa1a03e1 	mov	x1, x26
    80204634:	38401428 	ldrb	w8, [x1], #1
    80204638:	7100a91f 	cmp	w8, #0x2a
    8020463c:	54011cc0 	b.eq	802069d4 <_vfprintf_r+0x31d4>  // b.none
    80204640:	5100c100 	sub	w0, w8, #0x30
    80204644:	aa0103fa 	mov	x26, x1
    80204648:	52800007 	mov	w7, #0x0                   	// #0
    8020464c:	52800019 	mov	w25, #0x0                   	// #0
    80204650:	7100241f 	cmp	w0, #0x9
    80204654:	54ffa0e8 	b.hi	80203a70 <_vfprintf_r+0x270>  // b.pmore
    80204658:	38401428 	ldrb	w8, [x1], #1
    8020465c:	0b0708e7 	add	w7, w7, w7, lsl #2
    80204660:	0b070407 	add	w7, w0, w7, lsl #1
    80204664:	5100c100 	sub	w0, w8, #0x30
    80204668:	7100241f 	cmp	w0, #0x9
    8020466c:	54ffff69 	b.ls	80204658 <_vfprintf_r+0xe58>  // b.plast
    80204670:	710000ff 	cmp	w7, #0x0
    80204674:	aa0103fa 	mov	x26, x1
    80204678:	5a9fa0f9 	csinv	w25, w7, wzr, ge	// ge = tcont
    8020467c:	17fffcfd 	b	80203a70 <_vfprintf_r+0x270>
    80204680:	52800560 	mov	w0, #0x2b                  	// #43
    80204684:	39400348 	ldrb	w8, [x26]
    80204688:	39057fe0 	strb	w0, [sp, #351]
    8020468c:	17fffcf8 	b	80203a6c <_vfprintf_r+0x26c>
    80204690:	b94093e0 	ldr	w0, [sp, #144]
    80204694:	37f83d00 	tbnz	w0, #31, 80204e34 <_vfprintf_r+0x1634>
    80204698:	f9403fe0 	ldr	x0, [sp, #120]
    8020469c:	91002c00 	add	x0, x0, #0xb
    802046a0:	927df000 	and	x0, x0, #0xfffffffffffffff8
    802046a4:	f9403fe1 	ldr	x1, [sp, #120]
    802046a8:	b9400038 	ldr	w24, [x1]
    802046ac:	37fffb98 	tbnz	w24, #31, 8020461c <_vfprintf_r+0xe1c>
    802046b0:	39400348 	ldrb	w8, [x26]
    802046b4:	f9003fe0 	str	x0, [sp, #120]
    802046b8:	17fffced 	b	80203a6c <_vfprintf_r+0x26c>
    802046bc:	aa1303e0 	mov	x0, x19
    802046c0:	94001688 	bl	8020a0e0 <_localeconv_r>
    802046c4:	f9400400 	ldr	x0, [x0, #8]
    802046c8:	f90077e0 	str	x0, [sp, #232]
    802046cc:	97fffa8d 	bl	80203100 <strlen>
    802046d0:	aa0003e1 	mov	x1, x0
    802046d4:	aa0103fb 	mov	x27, x1
    802046d8:	aa1303e0 	mov	x0, x19
    802046dc:	f90083e1 	str	x1, [sp, #256]
    802046e0:	94001680 	bl	8020a0e0 <_localeconv_r>
    802046e4:	f9400800 	ldr	x0, [x0, #16]
    802046e8:	f9007fe0 	str	x0, [sp, #248]
    802046ec:	f100037f 	cmp	x27, #0x0
    802046f0:	fa401804 	ccmp	x0, #0x0, #0x4, ne	// ne = any
    802046f4:	54003420 	b.eq	80204d78 <_vfprintf_r+0x1578>  // b.none
    802046f8:	39400001 	ldrb	w1, [x0]
    802046fc:	321602e0 	orr	w0, w23, #0x400
    80204700:	39400348 	ldrb	w8, [x26]
    80204704:	7100003f 	cmp	w1, #0x0
    80204708:	1a971017 	csel	w23, w0, w23, ne	// ne = any
    8020470c:	17fffcd8 	b	80203a6c <_vfprintf_r+0x26c>
    80204710:	39400348 	ldrb	w8, [x26]
    80204714:	320002f7 	orr	w23, w23, #0x1
    80204718:	17fffcd5 	b	80203a6c <_vfprintf_r+0x26c>
    8020471c:	39457fe0 	ldrb	w0, [sp, #351]
    80204720:	39400348 	ldrb	w8, [x26]
    80204724:	35ff9a40 	cbnz	w0, 80203a6c <_vfprintf_r+0x26c>
    80204728:	52800400 	mov	w0, #0x20                  	// #32
    8020472c:	39057fe0 	strb	w0, [sp, #351]
    80204730:	17fffccf 	b	80203a6c <_vfprintf_r+0x26c>
    80204734:	2a1803eb 	mov	w11, w24
    80204738:	2a1903e7 	mov	w7, w25
    8020473c:	aa1a03ea 	mov	x10, x26
    80204740:	321c02e9 	orr	w9, w23, #0x10
    80204744:	b94093e0 	ldr	w0, [sp, #144]
    80204748:	37280049 	tbnz	w9, #5, 80204750 <_vfprintf_r+0xf50>
    8020474c:	36203329 	tbz	w9, #4, 80204db0 <_vfprintf_r+0x15b0>
    80204750:	37f84f40 	tbnz	w0, #31, 80205138 <_vfprintf_r+0x1938>
    80204754:	f9403fe0 	ldr	x0, [sp, #120]
    80204758:	91003c01 	add	x1, x0, #0xf
    8020475c:	927df021 	and	x1, x1, #0xfffffffffffffff8
    80204760:	f9003fe1 	str	x1, [sp, #120]
    80204764:	f9400000 	ldr	x0, [x0]
    80204768:	1215793a 	and	w26, w9, #0xfffffbff
    8020476c:	52800001 	mov	w1, #0x0                   	// #0
    80204770:	52800002 	mov	w2, #0x0                   	// #0
    80204774:	39057fe2 	strb	w2, [sp, #351]
    80204778:	37f80e27 	tbnz	w7, #31, 8020493c <_vfprintf_r+0x113c>
    8020477c:	f100001f 	cmp	x0, #0x0
    80204780:	12187b49 	and	w9, w26, #0xffffff7f
    80204784:	7a4008e0 	ccmp	w7, #0x0, #0x0, eq	// eq = none
    80204788:	54000d81 	b.ne	80204938 <_vfprintf_r+0x1138>  // b.any
    8020478c:	35000c81 	cbnz	w1, 8020491c <_vfprintf_r+0x111c>
    80204790:	12000357 	and	w23, w26, #0x1
    80204794:	36001bba 	tbz	w26, #0, 80204b08 <_vfprintf_r+0x1308>
    80204798:	91082ffb 	add	x27, sp, #0x20b
    8020479c:	52800600 	mov	w0, #0x30                  	// #48
    802047a0:	52800007 	mov	w7, #0x0                   	// #0
    802047a4:	39082fe0 	strb	w0, [sp, #523]
    802047a8:	39457fe1 	ldrb	w1, [sp, #351]
    802047ac:	6b1700ff 	cmp	w7, w23
    802047b0:	b9008bff 	str	wzr, [sp, #136]
    802047b4:	1a97a0fa 	csel	w26, w7, w23, ge	// ge = tcont
    802047b8:	b9009bff 	str	wzr, [sp, #152]
    802047bc:	d2800019 	mov	x25, #0x0                   	// #0
    802047c0:	52800018 	mov	w24, #0x0                   	// #0
    802047c4:	34ff9861 	cbz	w1, 80203ad0 <_vfprintf_r+0x2d0>
    802047c8:	17ffff16 	b	80204420 <_vfprintf_r+0xc20>
    802047cc:	39400348 	ldrb	w8, [x26]
    802047d0:	321d02f7 	orr	w23, w23, #0x8
    802047d4:	17fffca6 	b	80203a6c <_vfprintf_r+0x26c>
    802047d8:	aa1a03ea 	mov	x10, x26
    802047dc:	2a1803eb 	mov	w11, w24
    802047e0:	2a1903e7 	mov	w7, w25
    802047e4:	321c02fa 	orr	w26, w23, #0x10
    802047e8:	b94093e0 	ldr	w0, [sp, #144]
    802047ec:	3728005a 	tbnz	w26, #5, 802047f4 <_vfprintf_r+0xff4>
    802047f0:	3620297a 	tbz	w26, #4, 80204d1c <_vfprintf_r+0x151c>
    802047f4:	37f848e0 	tbnz	w0, #31, 80205110 <_vfprintf_r+0x1910>
    802047f8:	f9403fe0 	ldr	x0, [sp, #120]
    802047fc:	91003c01 	add	x1, x0, #0xf
    80204800:	927df021 	and	x1, x1, #0xfffffffffffffff8
    80204804:	f9003fe1 	str	x1, [sp, #120]
    80204808:	f9400000 	ldr	x0, [x0]
    8020480c:	52800021 	mov	w1, #0x1                   	// #1
    80204810:	17ffffd8 	b	80204770 <_vfprintf_r+0xf70>
    80204814:	39400348 	ldrb	w8, [x26]
    80204818:	7101b11f 	cmp	w8, #0x6c
    8020481c:	54003720 	b.eq	80204f00 <_vfprintf_r+0x1700>  // b.none
    80204820:	321c02f7 	orr	w23, w23, #0x10
    80204824:	17fffc92 	b	80203a6c <_vfprintf_r+0x26c>
    80204828:	39400348 	ldrb	w8, [x26]
    8020482c:	7101a11f 	cmp	w8, #0x68
    80204830:	54003700 	b.eq	80204f10 <_vfprintf_r+0x1710>  // b.none
    80204834:	321a02f7 	orr	w23, w23, #0x40
    80204838:	17fffc8d 	b	80203a6c <_vfprintf_r+0x26c>
    8020483c:	39400348 	ldrb	w8, [x26]
    80204840:	321b02f7 	orr	w23, w23, #0x20
    80204844:	17fffc8a 	b	80203a6c <_vfprintf_r+0x26c>
    80204848:	b94093e0 	ldr	w0, [sp, #144]
    8020484c:	2a1703e9 	mov	w9, w23
    80204850:	2a1803eb 	mov	w11, w24
    80204854:	2a1903e7 	mov	w7, w25
    80204858:	aa1a03ea 	mov	x10, x26
    8020485c:	37f82c40 	tbnz	w0, #31, 80204de4 <_vfprintf_r+0x15e4>
    80204860:	f9403fe0 	ldr	x0, [sp, #120]
    80204864:	91003c01 	add	x1, x0, #0xf
    80204868:	927df021 	and	x1, x1, #0xfffffffffffffff8
    8020486c:	f9003fe1 	str	x1, [sp, #120]
    80204870:	f9400000 	ldr	x0, [x0]
    80204874:	528f0602 	mov	w2, #0x7830                	// #30768
    80204878:	90000063 	adrp	x3, 80210000 <__trunctfdf2+0xc0>
    8020487c:	321f013a 	orr	w26, w9, #0x2
    80204880:	91140063 	add	x3, x3, #0x500
    80204884:	52800041 	mov	w1, #0x2                   	// #2
    80204888:	52800f08 	mov	w8, #0x78                  	// #120
    8020488c:	f90073e3 	str	x3, [sp, #224]
    80204890:	7902c3e2 	strh	w2, [sp, #352]
    80204894:	17ffffb7 	b	80204770 <_vfprintf_r+0xf70>
    80204898:	b94093e0 	ldr	w0, [sp, #144]
    8020489c:	2a1703e9 	mov	w9, w23
    802048a0:	aa1a03ea 	mov	x10, x26
    802048a4:	362826e9 	tbz	w9, #5, 80204d80 <_vfprintf_r+0x1580>
    802048a8:	37f86d40 	tbnz	w0, #31, 80205650 <_vfprintf_r+0x1e50>
    802048ac:	f9403fe0 	ldr	x0, [sp, #120]
    802048b0:	91003c01 	add	x1, x0, #0xf
    802048b4:	927df021 	and	x1, x1, #0xfffffffffffffff8
    802048b8:	f9003fe1 	str	x1, [sp, #120]
    802048bc:	f9400000 	ldr	x0, [x0]
    802048c0:	b98077e1 	ldrsw	x1, [sp, #116]
    802048c4:	f9000001 	str	x1, [x0]
    802048c8:	17fffc13 	b	80203914 <_vfprintf_r+0x114>
    802048cc:	2a1803eb 	mov	w11, w24
    802048d0:	2a1903e7 	mov	w7, w25
    802048d4:	aa1a03ea 	mov	x10, x26
    802048d8:	321c02e9 	orr	w9, w23, #0x10
    802048dc:	b94093e0 	ldr	w0, [sp, #144]
    802048e0:	37280049 	tbnz	w9, #5, 802048e8 <_vfprintf_r+0x10e8>
    802048e4:	362022e9 	tbz	w9, #4, 80204d40 <_vfprintf_r+0x1540>
    802048e8:	37f843c0 	tbnz	w0, #31, 80205160 <_vfprintf_r+0x1960>
    802048ec:	f9403fe0 	ldr	x0, [sp, #120]
    802048f0:	91003c01 	add	x1, x0, #0xf
    802048f4:	927df021 	and	x1, x1, #0xfffffffffffffff8
    802048f8:	f9003fe1 	str	x1, [sp, #120]
    802048fc:	f9400001 	ldr	x1, [x0]
    80204900:	aa0103e0 	mov	x0, x1
    80204904:	b7f82301 	tbnz	x1, #63, 80204d64 <_vfprintf_r+0x1564>
    80204908:	37f80ee7 	tbnz	w7, #31, 80204ae4 <_vfprintf_r+0x12e4>
    8020490c:	f100001f 	cmp	x0, #0x0
    80204910:	12187929 	and	w9, w9, #0xffffff7f
    80204914:	7a4008e0 	ccmp	w7, #0x0, #0x0, eq	// eq = none
    80204918:	54000e61 	b.ne	80204ae4 <_vfprintf_r+0x12e4>  // b.any
    8020491c:	910833fb 	add	x27, sp, #0x20c
    80204920:	52800007 	mov	w7, #0x0                   	// #0
    80204924:	52800017 	mov	w23, #0x0                   	// #0
    80204928:	17ffffa0 	b	802047a8 <_vfprintf_r+0xfa8>
    8020492c:	39400348 	ldrb	w8, [x26]
    80204930:	321902f7 	orr	w23, w23, #0x80
    80204934:	17fffc4e 	b	80203a6c <_vfprintf_r+0x26c>
    80204938:	2a0903fa 	mov	w26, w9
    8020493c:	7100043f 	cmp	w1, #0x1
    80204940:	54000d40 	b.eq	80204ae8 <_vfprintf_r+0x12e8>  // b.none
    80204944:	910833f7 	add	x23, sp, #0x20c
    80204948:	aa1703fb 	mov	x27, x23
    8020494c:	7100083f 	cmp	w1, #0x2
    80204950:	54000141 	b.ne	80204978 <_vfprintf_r+0x1178>  // b.any
    80204954:	f94073e2 	ldr	x2, [sp, #224]
    80204958:	92400c01 	and	x1, x0, #0xf
    8020495c:	d344fc00 	lsr	x0, x0, #4
    80204960:	38616841 	ldrb	w1, [x2, x1]
    80204964:	381fff61 	strb	w1, [x27, #-1]!
    80204968:	b5ffff80 	cbnz	x0, 80204958 <_vfprintf_r+0x1158>
    8020496c:	4b1b02f7 	sub	w23, w23, w27
    80204970:	2a1a03e9 	mov	w9, w26
    80204974:	17ffff8d 	b	802047a8 <_vfprintf_r+0xfa8>
    80204978:	12000801 	and	w1, w0, #0x7
    8020497c:	aa1b03e2 	mov	x2, x27
    80204980:	1100c021 	add	w1, w1, #0x30
    80204984:	381fff61 	strb	w1, [x27, #-1]!
    80204988:	d343fc00 	lsr	x0, x0, #3
    8020498c:	b5ffff60 	cbnz	x0, 80204978 <_vfprintf_r+0x1178>
    80204990:	7100c03f 	cmp	w1, #0x30
    80204994:	1a9f07e0 	cset	w0, ne	// ne = any
    80204998:	6a00035f 	tst	w26, w0
    8020499c:	54fffe80 	b.eq	8020496c <_vfprintf_r+0x116c>  // b.none
    802049a0:	d1000842 	sub	x2, x2, #0x2
    802049a4:	52800600 	mov	w0, #0x30                  	// #48
    802049a8:	2a1a03e9 	mov	w9, w26
    802049ac:	4b0202f7 	sub	w23, w23, w2
    802049b0:	381ff360 	sturb	w0, [x27, #-1]
    802049b4:	aa0203fb 	mov	x27, x2
    802049b8:	17ffff7c 	b	802047a8 <_vfprintf_r+0xfa8>
    802049bc:	910643e2 	add	x2, sp, #0x190
    802049c0:	aa1503e1 	mov	x1, x21
    802049c4:	aa1303e0 	mov	x0, x19
    802049c8:	b900bbee 	str	w14, [sp, #184]
    802049cc:	b900c3e9 	str	w9, [sp, #192]
    802049d0:	b900cbe8 	str	w8, [sp, #200]
    802049d4:	b900d3eb 	str	w11, [sp, #208]
    802049d8:	b900dbe7 	str	w7, [sp, #216]
    802049dc:	f9008bea 	str	x10, [sp, #272]
    802049e0:	940008c4 	bl	80206cf0 <__sprint_r>
    802049e4:	35ffb2e0 	cbnz	w0, 80204040 <_vfprintf_r+0x840>
    802049e8:	f9408bea 	ldr	x10, [sp, #272]
    802049ec:	aa1603fc 	mov	x28, x22
    802049f0:	f940d3e0 	ldr	x0, [sp, #416]
    802049f4:	b940bbee 	ldr	w14, [sp, #184]
    802049f8:	b940c3e9 	ldr	w9, [sp, #192]
    802049fc:	b940cbe8 	ldr	w8, [sp, #200]
    80204a00:	b940d3eb 	ldr	w11, [sp, #208]
    80204a04:	b940dbe7 	ldr	w7, [sp, #216]
    80204a08:	17fffc56 	b	80203b60 <_vfprintf_r+0x360>
    80204a0c:	9000006d 	adrp	x13, 80210000 <__trunctfdf2+0xc0>
    80204a10:	b9419be1 	ldr	w1, [sp, #408]
    80204a14:	912381ad 	add	x13, x13, #0x8e0
    80204a18:	710042ff 	cmp	w23, #0x10
    80204a1c:	540003ed 	b.le	80204a98 <_vfprintf_r+0x1298>
    80204a20:	aa0d03f8 	mov	x24, x13
    80204a24:	d280021b 	mov	x27, #0x10                  	// #16
    80204a28:	b9008beb 	str	w11, [sp, #136]
    80204a2c:	f9004fea 	str	x10, [sp, #152]
    80204a30:	14000004 	b	80204a40 <_vfprintf_r+0x1240>
    80204a34:	510042f7 	sub	w23, w23, #0x10
    80204a38:	710042ff 	cmp	w23, #0x10
    80204a3c:	5400028d 	b.le	80204a8c <_vfprintf_r+0x128c>
    80204a40:	91004000 	add	x0, x0, #0x10
    80204a44:	11000421 	add	w1, w1, #0x1
    80204a48:	a9006f98 	stp	x24, x27, [x28]
    80204a4c:	9100439c 	add	x28, x28, #0x10
    80204a50:	b9019be1 	str	w1, [sp, #408]
    80204a54:	f900d3e0 	str	x0, [sp, #416]
    80204a58:	71001c3f 	cmp	w1, #0x7
    80204a5c:	54fffecd 	b.le	80204a34 <_vfprintf_r+0x1234>
    80204a60:	910643e2 	add	x2, sp, #0x190
    80204a64:	aa1503e1 	mov	x1, x21
    80204a68:	aa1303e0 	mov	x0, x19
    80204a6c:	940008a1 	bl	80206cf0 <__sprint_r>
    80204a70:	35ffae80 	cbnz	w0, 80204040 <_vfprintf_r+0x840>
    80204a74:	510042f7 	sub	w23, w23, #0x10
    80204a78:	b9419be1 	ldr	w1, [sp, #408]
    80204a7c:	f940d3e0 	ldr	x0, [sp, #416]
    80204a80:	aa1603fc 	mov	x28, x22
    80204a84:	710042ff 	cmp	w23, #0x10
    80204a88:	54fffdcc 	b.gt	80204a40 <_vfprintf_r+0x1240>
    80204a8c:	f9404fea 	ldr	x10, [sp, #152]
    80204a90:	aa1803ed 	mov	x13, x24
    80204a94:	b9408beb 	ldr	w11, [sp, #136]
    80204a98:	93407ef7 	sxtw	x23, w23
    80204a9c:	11000421 	add	w1, w1, #0x1
    80204aa0:	8b170000 	add	x0, x0, x23
    80204aa4:	a9005f8d 	stp	x13, x23, [x28]
    80204aa8:	b9019be1 	str	w1, [sp, #408]
    80204aac:	f900d3e0 	str	x0, [sp, #416]
    80204ab0:	71001c3f 	cmp	w1, #0x7
    80204ab4:	54ff87ed 	b.le	80203bb0 <_vfprintf_r+0x3b0>
    80204ab8:	910643e2 	add	x2, sp, #0x190
    80204abc:	aa1503e1 	mov	x1, x21
    80204ac0:	aa1303e0 	mov	x0, x19
    80204ac4:	b9008beb 	str	w11, [sp, #136]
    80204ac8:	f9004fea 	str	x10, [sp, #152]
    80204acc:	94000889 	bl	80206cf0 <__sprint_r>
    80204ad0:	35ffab80 	cbnz	w0, 80204040 <_vfprintf_r+0x840>
    80204ad4:	f9404fea 	ldr	x10, [sp, #152]
    80204ad8:	f940d3e0 	ldr	x0, [sp, #416]
    80204adc:	b9408beb 	ldr	w11, [sp, #136]
    80204ae0:	17fffc34 	b	80203bb0 <_vfprintf_r+0x3b0>
    80204ae4:	2a0903fa 	mov	w26, w9
    80204ae8:	f100241f 	cmp	x0, #0x9
    80204aec:	540054a8 	b.hi	80205580 <_vfprintf_r+0x1d80>  // b.pmore
    80204af0:	1100c000 	add	w0, w0, #0x30
    80204af4:	2a1a03e9 	mov	w9, w26
    80204af8:	91082ffb 	add	x27, sp, #0x20b
    80204afc:	52800037 	mov	w23, #0x1                   	// #1
    80204b00:	39082fe0 	strb	w0, [sp, #523]
    80204b04:	17ffff29 	b	802047a8 <_vfprintf_r+0xfa8>
    80204b08:	910833fb 	add	x27, sp, #0x20c
    80204b0c:	52800007 	mov	w7, #0x0                   	// #0
    80204b10:	17ffff26 	b	802047a8 <_vfprintf_r+0xfa8>
    80204b14:	b94097e1 	ldr	w1, [sp, #148]
    80204b18:	6b01031f 	cmp	w24, w1
    80204b1c:	1a81d317 	csel	w23, w24, w1, le
    80204b20:	93407c2c 	sxtw	x12, w1
    80204b24:	710002ff 	cmp	w23, #0x0
    80204b28:	5400016d 	b.le	80204b54 <_vfprintf_r+0x1354>
    80204b2c:	b9419be1 	ldr	w1, [sp, #408]
    80204b30:	93407ee2 	sxtw	x2, w23
    80204b34:	8b020000 	add	x0, x0, x2
    80204b38:	a9000b9b 	stp	x27, x2, [x28]
    80204b3c:	11000421 	add	w1, w1, #0x1
    80204b40:	b9019be1 	str	w1, [sp, #408]
    80204b44:	9100439c 	add	x28, x28, #0x10
    80204b48:	f900d3e0 	str	x0, [sp, #416]
    80204b4c:	71001c3f 	cmp	w1, #0x7
    80204b50:	5400b3cc 	b.gt	802061c8 <_vfprintf_r+0x29c8>
    80204b54:	710002ff 	cmp	w23, #0x0
    80204b58:	1a9fa2e4 	csel	w4, w23, wzr, ge	// ge = tcont
    80204b5c:	4b040317 	sub	w23, w24, w4
    80204b60:	710002ff 	cmp	w23, #0x0
    80204b64:	5400594c 	b.gt	8020568c <_vfprintf_r+0x1e8c>
    80204b68:	8b38c368 	add	x8, x27, w24, sxtw
    80204b6c:	37509509 	tbnz	w9, #10, 80205e0c <_vfprintf_r+0x260c>
    80204b70:	b94097e1 	ldr	w1, [sp, #148]
    80204b74:	b9416bf7 	ldr	w23, [sp, #360]
    80204b78:	6b0102ff 	cmp	w23, w1
    80204b7c:	5400266b 	b.lt	80205048 <_vfprintf_r+0x1848>  // b.tstop
    80204b80:	37002649 	tbnz	w9, #0, 80205048 <_vfprintf_r+0x1848>
    80204b84:	b94097e1 	ldr	w1, [sp, #148]
    80204b88:	8b0c037b 	add	x27, x27, x12
    80204b8c:	cb08037b 	sub	x27, x27, x8
    80204b90:	4b170037 	sub	w23, w1, w23
    80204b94:	6b1b02ff 	cmp	w23, w27
    80204b98:	1a9bb2fb 	csel	w27, w23, w27, lt	// lt = tstop
    80204b9c:	7100037f 	cmp	w27, #0x0
    80204ba0:	5400016d 	b.le	80204bcc <_vfprintf_r+0x13cc>
    80204ba4:	b9419be1 	ldr	w1, [sp, #408]
    80204ba8:	93407f62 	sxtw	x2, w27
    80204bac:	8b020000 	add	x0, x0, x2
    80204bb0:	a9000b88 	stp	x8, x2, [x28]
    80204bb4:	11000421 	add	w1, w1, #0x1
    80204bb8:	b9019be1 	str	w1, [sp, #408]
    80204bbc:	9100439c 	add	x28, x28, #0x10
    80204bc0:	f900d3e0 	str	x0, [sp, #416]
    80204bc4:	71001c3f 	cmp	w1, #0x7
    80204bc8:	5400b6ec 	b.gt	802062a4 <_vfprintf_r+0x2aa4>
    80204bcc:	7100037f 	cmp	w27, #0x0
    80204bd0:	1a9fa37b 	csel	w27, w27, wzr, ge	// ge = tcont
    80204bd4:	4b1b02f7 	sub	w23, w23, w27
    80204bd8:	710002ff 	cmp	w23, #0x0
    80204bdc:	54ff7e2d 	b.le	80203ba0 <_vfprintf_r+0x3a0>
    80204be0:	90000064 	adrp	x4, 80210000 <__trunctfdf2+0xc0>
    80204be4:	b9419be1 	ldr	w1, [sp, #408]
    80204be8:	91234084 	add	x4, x4, #0x8d0
    80204bec:	710042ff 	cmp	w23, #0x10
    80204bf0:	54004b4d 	b.le	80205558 <_vfprintf_r+0x1d58>
    80204bf4:	aa1c03e2 	mov	x2, x28
    80204bf8:	aa0403f8 	mov	x24, x4
    80204bfc:	aa0a03fc 	mov	x28, x10
    80204c00:	d280021b 	mov	x27, #0x10                  	// #16
    80204c04:	b9008be9 	str	w9, [sp, #136]
    80204c08:	b9009beb 	str	w11, [sp, #152]
    80204c0c:	14000004 	b	80204c1c <_vfprintf_r+0x141c>
    80204c10:	510042f7 	sub	w23, w23, #0x10
    80204c14:	710042ff 	cmp	w23, #0x10
    80204c18:	5400496d 	b.le	80205544 <_vfprintf_r+0x1d44>
    80204c1c:	91004000 	add	x0, x0, #0x10
    80204c20:	11000421 	add	w1, w1, #0x1
    80204c24:	a9006c58 	stp	x24, x27, [x2]
    80204c28:	91004042 	add	x2, x2, #0x10
    80204c2c:	b9019be1 	str	w1, [sp, #408]
    80204c30:	f900d3e0 	str	x0, [sp, #416]
    80204c34:	71001c3f 	cmp	w1, #0x7
    80204c38:	54fffecd 	b.le	80204c10 <_vfprintf_r+0x1410>
    80204c3c:	910643e2 	add	x2, sp, #0x190
    80204c40:	aa1503e1 	mov	x1, x21
    80204c44:	aa1303e0 	mov	x0, x19
    80204c48:	9400082a 	bl	80206cf0 <__sprint_r>
    80204c4c:	35ff9fa0 	cbnz	w0, 80204040 <_vfprintf_r+0x840>
    80204c50:	f940d3e0 	ldr	x0, [sp, #416]
    80204c54:	aa1603e2 	mov	x2, x22
    80204c58:	b9419be1 	ldr	w1, [sp, #408]
    80204c5c:	17ffffed 	b	80204c10 <_vfprintf_r+0x1410>
    80204c60:	910643e2 	add	x2, sp, #0x190
    80204c64:	aa1503e1 	mov	x1, x21
    80204c68:	aa1303e0 	mov	x0, x19
    80204c6c:	b9008be9 	str	w9, [sp, #136]
    80204c70:	b9009beb 	str	w11, [sp, #152]
    80204c74:	f9005fea 	str	x10, [sp, #184]
    80204c78:	9400081e 	bl	80206cf0 <__sprint_r>
    80204c7c:	35ff9e20 	cbnz	w0, 80204040 <_vfprintf_r+0x840>
    80204c80:	f9405fea 	ldr	x10, [sp, #184]
    80204c84:	aa1603e2 	mov	x2, x22
    80204c88:	f940d3e0 	ldr	x0, [sp, #416]
    80204c8c:	b9408be9 	ldr	w9, [sp, #136]
    80204c90:	b9409beb 	ldr	w11, [sp, #152]
    80204c94:	b9419be1 	ldr	w1, [sp, #408]
    80204c98:	17fffd5f 	b	80204214 <_vfprintf_r+0xa14>
    80204c9c:	910643e2 	add	x2, sp, #0x190
    80204ca0:	aa1503e1 	mov	x1, x21
    80204ca4:	aa1303e0 	mov	x0, x19
    80204ca8:	b9008be9 	str	w9, [sp, #136]
    80204cac:	b9009beb 	str	w11, [sp, #152]
    80204cb0:	f9005fea 	str	x10, [sp, #184]
    80204cb4:	9400080f 	bl	80206cf0 <__sprint_r>
    80204cb8:	35ff9c40 	cbnz	w0, 80204040 <_vfprintf_r+0x840>
    80204cbc:	1e602108 	fcmp	d8, #0.0
    80204cc0:	b94097e3 	ldr	w3, [sp, #148]
    80204cc4:	f9405fea 	ldr	x10, [sp, #184]
    80204cc8:	aa1603e2 	mov	x2, x22
    80204ccc:	f940d3e0 	ldr	x0, [sp, #416]
    80204cd0:	51000477 	sub	w23, w3, #0x1
    80204cd4:	b9408be9 	ldr	w9, [sp, #136]
    80204cd8:	b9409beb 	ldr	w11, [sp, #152]
    80204cdc:	b9419be1 	ldr	w1, [sp, #408]
    80204ce0:	54ffbd00 	b.eq	80204480 <_vfprintf_r+0xc80>  // b.none
    80204ce4:	17fffd59 	b	80204248 <_vfprintf_r+0xa48>
    80204ce8:	f94052a0 	ldr	x0, [x21, #160]
    80204cec:	940011b5 	bl	802093c0 <__retarget_lock_acquire_recursive>
    80204cf0:	79c022a0 	ldrsh	w0, [x21, #16]
    80204cf4:	17fffae7 	b	80203890 <_vfprintf_r+0x90>
    80204cf8:	36077549 	tbz	w9, #0, 80203ba0 <_vfprintf_r+0x3a0>
    80204cfc:	17fffc23 	b	80203d88 <_vfprintf_r+0x588>
    80204d00:	37f88700 	tbnz	w0, #31, 80205de0 <_vfprintf_r+0x25e0>
    80204d04:	f9403fe0 	ldr	x0, [sp, #120]
    80204d08:	91003c01 	add	x1, x0, #0xf
    80204d0c:	fd400008 	ldr	d8, [x0]
    80204d10:	927df021 	and	x1, x1, #0xfffffffffffffff8
    80204d14:	f9003fe1 	str	x1, [sp, #120]
    80204d18:	17fffdaa 	b	802043c0 <_vfprintf_r+0xbc0>
    80204d1c:	36304ffa 	tbz	w26, #6, 80205718 <_vfprintf_r+0x1f18>
    80204d20:	37f87920 	tbnz	w0, #31, 80205c44 <_vfprintf_r+0x2444>
    80204d24:	f9403fe0 	ldr	x0, [sp, #120]
    80204d28:	91002c01 	add	x1, x0, #0xb
    80204d2c:	927df021 	and	x1, x1, #0xfffffffffffffff8
    80204d30:	f9003fe1 	str	x1, [sp, #120]
    80204d34:	79400000 	ldrh	w0, [x0]
    80204d38:	52800021 	mov	w1, #0x1                   	// #1
    80204d3c:	17fffe8d 	b	80204770 <_vfprintf_r+0xf70>
    80204d40:	36305509 	tbz	w9, #6, 802057e0 <_vfprintf_r+0x1fe0>
    80204d44:	37f87260 	tbnz	w0, #31, 80205b90 <_vfprintf_r+0x2390>
    80204d48:	f9403fe0 	ldr	x0, [sp, #120]
    80204d4c:	91002c01 	add	x1, x0, #0xb
    80204d50:	927df021 	and	x1, x1, #0xfffffffffffffff8
    80204d54:	f9003fe1 	str	x1, [sp, #120]
    80204d58:	79800000 	ldrsh	x0, [x0]
    80204d5c:	aa0003e1 	mov	x1, x0
    80204d60:	b6ffdd41 	tbz	x1, #63, 80204908 <_vfprintf_r+0x1108>
    80204d64:	cb0003e0 	neg	x0, x0
    80204d68:	2a0903fa 	mov	w26, w9
    80204d6c:	528005a2 	mov	w2, #0x2d                  	// #45
    80204d70:	52800021 	mov	w1, #0x1                   	// #1
    80204d74:	17fffe80 	b	80204774 <_vfprintf_r+0xf74>
    80204d78:	39400348 	ldrb	w8, [x26]
    80204d7c:	17fffb3c 	b	80203a6c <_vfprintf_r+0x26c>
    80204d80:	3727d949 	tbnz	w9, #4, 802048a8 <_vfprintf_r+0x10a8>
    80204d84:	37306b89 	tbnz	w9, #6, 80205af4 <_vfprintf_r+0x22f4>
    80204d88:	3648bba9 	tbz	w9, #9, 802064fc <_vfprintf_r+0x2cfc>
    80204d8c:	37f8d6e0 	tbnz	w0, #31, 80206868 <_vfprintf_r+0x3068>
    80204d90:	f9403fe0 	ldr	x0, [sp, #120]
    80204d94:	91003c01 	add	x1, x0, #0xf
    80204d98:	927df021 	and	x1, x1, #0xfffffffffffffff8
    80204d9c:	f9003fe1 	str	x1, [sp, #120]
    80204da0:	f9400000 	ldr	x0, [x0]
    80204da4:	3941d3e1 	ldrb	w1, [sp, #116]
    80204da8:	39000001 	strb	w1, [x0]
    80204dac:	17fffada 	b	80203914 <_vfprintf_r+0x114>
    80204db0:	36304c69 	tbz	w9, #6, 8020573c <_vfprintf_r+0x1f3c>
    80204db4:	37f870c0 	tbnz	w0, #31, 80205bcc <_vfprintf_r+0x23cc>
    80204db8:	f9403fe0 	ldr	x0, [sp, #120]
    80204dbc:	91002c01 	add	x1, x0, #0xb
    80204dc0:	927df021 	and	x1, x1, #0xfffffffffffffff8
    80204dc4:	79400000 	ldrh	w0, [x0]
    80204dc8:	f9003fe1 	str	x1, [sp, #120]
    80204dcc:	17fffe67 	b	80204768 <_vfprintf_r+0xf68>
    80204dd0:	2a1703e9 	mov	w9, w23
    80204dd4:	2a1803eb 	mov	w11, w24
    80204dd8:	2a1903e7 	mov	w7, w25
    80204ddc:	aa1a03ea 	mov	x10, x26
    80204de0:	17fffebf 	b	802048dc <_vfprintf_r+0x10dc>
    80204de4:	b94093e0 	ldr	w0, [sp, #144]
    80204de8:	11002001 	add	w1, w0, #0x8
    80204dec:	7100003f 	cmp	w1, #0x0
    80204df0:	54009e2d 	b.le	802061b4 <_vfprintf_r+0x29b4>
    80204df4:	f9403fe0 	ldr	x0, [sp, #120]
    80204df8:	b90093e1 	str	w1, [sp, #144]
    80204dfc:	91003c02 	add	x2, x0, #0xf
    80204e00:	927df041 	and	x1, x2, #0xfffffffffffffff8
    80204e04:	f9003fe1 	str	x1, [sp, #120]
    80204e08:	17fffe9a 	b	80204870 <_vfprintf_r+0x1070>
    80204e0c:	b94093e0 	ldr	w0, [sp, #144]
    80204e10:	11002001 	add	w1, w0, #0x8
    80204e14:	7100003f 	cmp	w1, #0x0
    80204e18:	54009c4d 	b.le	802061a0 <_vfprintf_r+0x29a0>
    80204e1c:	f9403fe0 	ldr	x0, [sp, #120]
    80204e20:	b90093e1 	str	w1, [sp, #144]
    80204e24:	91003c02 	add	x2, x0, #0xf
    80204e28:	927df041 	and	x1, x2, #0xfffffffffffffff8
    80204e2c:	f9003fe1 	str	x1, [sp, #120]
    80204e30:	17fffdd9 	b	80204594 <_vfprintf_r+0xd94>
    80204e34:	b94093e0 	ldr	w0, [sp, #144]
    80204e38:	11002001 	add	w1, w0, #0x8
    80204e3c:	7100003f 	cmp	w1, #0x0
    80204e40:	54009a2d 	b.le	80206184 <_vfprintf_r+0x2984>
    80204e44:	f9403fe0 	ldr	x0, [sp, #120]
    80204e48:	b90093e1 	str	w1, [sp, #144]
    80204e4c:	91002c00 	add	x0, x0, #0xb
    80204e50:	927df000 	and	x0, x0, #0xfffffffffffffff8
    80204e54:	17fffe14 	b	802046a4 <_vfprintf_r+0xea4>
    80204e58:	f9404fea 	ldr	x10, [sp, #152]
    80204e5c:	2a1c03eb 	mov	w11, w28
    80204e60:	b9408be9 	ldr	w9, [sp, #136]
    80204e64:	aa1803e4 	mov	x4, x24
    80204e68:	93407ef7 	sxtw	x23, w23
    80204e6c:	11000421 	add	w1, w1, #0x1
    80204e70:	8b170000 	add	x0, x0, x23
    80204e74:	b9019be1 	str	w1, [sp, #408]
    80204e78:	f900d3e0 	str	x0, [sp, #416]
    80204e7c:	f9000044 	str	x4, [x2]
    80204e80:	f9000457 	str	x23, [x2, #8]
    80204e84:	71001c3f 	cmp	w1, #0x7
    80204e88:	54ff9f4d 	b.le	80204270 <_vfprintf_r+0xa70>
    80204e8c:	910643e2 	add	x2, sp, #0x190
    80204e90:	aa1503e1 	mov	x1, x21
    80204e94:	aa1303e0 	mov	x0, x19
    80204e98:	b9008be9 	str	w9, [sp, #136]
    80204e9c:	b9009beb 	str	w11, [sp, #152]
    80204ea0:	f9005fea 	str	x10, [sp, #184]
    80204ea4:	94000793 	bl	80206cf0 <__sprint_r>
    80204ea8:	35ff8cc0 	cbnz	w0, 80204040 <_vfprintf_r+0x840>
    80204eac:	f9405fea 	ldr	x10, [sp, #184]
    80204eb0:	aa1603e2 	mov	x2, x22
    80204eb4:	f940d3e0 	ldr	x0, [sp, #416]
    80204eb8:	b9408be9 	ldr	w9, [sp, #136]
    80204ebc:	b9409beb 	ldr	w11, [sp, #152]
    80204ec0:	b9419be1 	ldr	w1, [sp, #408]
    80204ec4:	17fffcec 	b	80204274 <_vfprintf_r+0xa74>
    80204ec8:	910643e2 	add	x2, sp, #0x190
    80204ecc:	aa1503e1 	mov	x1, x21
    80204ed0:	aa1303e0 	mov	x0, x19
    80204ed4:	b9008be9 	str	w9, [sp, #136]
    80204ed8:	b9009beb 	str	w11, [sp, #152]
    80204edc:	f9005fea 	str	x10, [sp, #184]
    80204ee0:	94000784 	bl	80206cf0 <__sprint_r>
    80204ee4:	35ff8ae0 	cbnz	w0, 80204040 <_vfprintf_r+0x840>
    80204ee8:	f9405fea 	ldr	x10, [sp, #184]
    80204eec:	aa1603fc 	mov	x28, x22
    80204ef0:	f940d3e0 	ldr	x0, [sp, #416]
    80204ef4:	b9408be9 	ldr	w9, [sp, #136]
    80204ef8:	b9409beb 	ldr	w11, [sp, #152]
    80204efc:	17fffbad 	b	80203db0 <_vfprintf_r+0x5b0>
    80204f00:	39400748 	ldrb	w8, [x26, #1]
    80204f04:	321b02f7 	orr	w23, w23, #0x20
    80204f08:	9100075a 	add	x26, x26, #0x1
    80204f0c:	17fffad8 	b	80203a6c <_vfprintf_r+0x26c>
    80204f10:	39400748 	ldrb	w8, [x26, #1]
    80204f14:	321702f7 	orr	w23, w23, #0x200
    80204f18:	9100075a 	add	x26, x26, #0x1
    80204f1c:	17fffad4 	b	80203a6c <_vfprintf_r+0x26c>
    80204f20:	aa1a03ea 	mov	x10, x26
    80204f24:	2a1803eb 	mov	w11, w24
    80204f28:	2a1903e7 	mov	w7, w25
    80204f2c:	2a1703fa 	mov	w26, w23
    80204f30:	17fffe2e 	b	802047e8 <_vfprintf_r+0xfe8>
    80204f34:	2a1703e9 	mov	w9, w23
    80204f38:	2a1803eb 	mov	w11, w24
    80204f3c:	2a1903e7 	mov	w7, w25
    80204f40:	aa1a03ea 	mov	x10, x26
    80204f44:	90000060 	adrp	x0, 80210000 <__trunctfdf2+0xc0>
    80204f48:	91146000 	add	x0, x0, #0x518
    80204f4c:	f90073e0 	str	x0, [sp, #224]
    80204f50:	b94093e0 	ldr	w0, [sp, #144]
    80204f54:	37280b09 	tbnz	w9, #5, 802050b4 <_vfprintf_r+0x18b4>
    80204f58:	37200ae9 	tbnz	w9, #4, 802050b4 <_vfprintf_r+0x18b4>
    80204f5c:	36304149 	tbz	w9, #6, 80205784 <_vfprintf_r+0x1f84>
